Archive member included because of file (symbol)

../stm32f4xx\libstm32f4xx.a(misc.o)
                              ./QS/QS_sys.o (NVIC_PriorityGroupConfig)
../stm32f4xx\libstm32f4xx.a(stm32f4xx_adc.o)
                              ./QS/QS_adc.o (ADC_Init)
../stm32f4xx\libstm32f4xx.a(stm32f4xx_can.o)
                              ./QS/QS_can.o (CAN_DeInit)
../stm32f4xx\libstm32f4xx.a(stm32f4xx_dma.o)
                              ./QS/QS_adc.o (DMA_Init)
../stm32f4xx\libstm32f4xx.a(stm32f4xx_exti.o)
                              ./QS/QS_external_it.o (EXTI_Init)
../stm32f4xx\libstm32f4xx.a(stm32f4xx_flash.o)
                              ./QS/QS_sys.o (FLASH_SetLatency)
../stm32f4xx\libstm32f4xx.a(stm32f4xx_gpio.o)
                              ./QS/QS_ports.o (GPIO_Init)
../stm32f4xx\libstm32f4xx.a(stm32f4xx_rcc.o)
                              ./QS/QS_sys.o (RCC_DeInit)
../stm32f4xx\libstm32f4xx.a(stm32f4xx_syscfg.o)
                              ./QS/QS_external_it.o (SYSCFG_EXTILineConfig)
../stm32f4xx\libstm32f4xx.a(stm32f4xx_tim.o)
                              ./QS/QS_pwm.o (TIM_TimeBaseInit)
../stm32f4xx\libstm32f4xx.a(stm32f4xx_usart.o)
                              ./QS/impl/QS_uart_stm32f4.o (USART_Init)
../stm32f4xx\libstm32f4xx.a(system_stm32f4xx.o)
                              ./QS/startup_stm32f40xx.o (SystemInit)
c:/program files (x86)/eclipse-arm-eseo/gcc-arm-none-eabi-4_7-2013q2-20130614-win32/gnu tools arm embedded/4.7 2013q2/bin/../lib/gcc/arm-none-eabi/4.7.4/armv7e-m\libgcc.a(_arm_addsubdf3.o)
                              ./maths_home.o (__aeabi_i2d)
c:/program files (x86)/eclipse-arm-eseo/gcc-arm-none-eabi-4_7-2013q2-20130614-win32/gnu tools arm embedded/4.7 2013q2/bin/../lib/gcc/arm-none-eabi/4.7.4/armv7e-m\libgcc.a(_arm_muldivdf3.o)
                              ./maths_home.o (__aeabi_dmul)
c:/program files (x86)/eclipse-arm-eseo/gcc-arm-none-eabi-4_7-2013q2-20130614-win32/gnu tools arm embedded/4.7 2013q2/bin/../lib/gcc/arm-none-eabi/4.7.4/armv7e-m\libgcc.a(_arm_fixdfsi.o)
                              ./maths_home.o (__aeabi_d2iz)
c:/program files (x86)/eclipse-arm-eseo/gcc-arm-none-eabi-4_7-2013q2-20130614-win32/gnu tools arm embedded/4.7 2013q2/bin/../lib/gcc/arm-none-eabi/4.7.4/../../../../arm-none-eabi/lib/armv7e-m\libg.a(lib_a-errno.o)
                              ./QS/QS_sys.o (__errno)
c:/program files (x86)/eclipse-arm-eseo/gcc-arm-none-eabi-4_7-2013q2-20130614-win32/gnu tools arm embedded/4.7 2013q2/bin/../lib/gcc/arm-none-eabi/4.7.4/../../../../arm-none-eabi/lib/armv7e-m\libg.a(lib_a-impure.o)
                              ./QS/QS_sys.o (_impure_ptr)
c:/program files (x86)/eclipse-arm-eseo/gcc-arm-none-eabi-4_7-2013q2-20130614-win32/gnu tools arm embedded/4.7 2013q2/bin/../lib/gcc/arm-none-eabi/4.7.4/../../../../arm-none-eabi/lib/armv7e-m\libg.a(lib_a-printf.o)
                              ./QS/QS_outputlog.o (printf)
c:/program files (x86)/eclipse-arm-eseo/gcc-arm-none-eabi-4_7-2013q2-20130614-win32/gnu tools arm embedded/4.7 2013q2/bin/../lib/gcc/arm-none-eabi/4.7.4/../../../../arm-none-eabi/lib/armv7e-m\libg.a(lib_a-setvbuf.o)
                              ./QS/QS_sys.o (setvbuf)
c:/program files (x86)/eclipse-arm-eseo/gcc-arm-none-eabi-4_7-2013q2-20130614-win32/gnu tools arm embedded/4.7 2013q2/bin/../lib/gcc/arm-none-eabi/4.7.4/../../../../arm-none-eabi/lib/armv7e-m\libg.a(lib_a-vfprintf.o)
                              c:/program files (x86)/eclipse-arm-eseo/gcc-arm-none-eabi-4_7-2013q2-20130614-win32/gnu tools arm embedded/4.7 2013q2/bin/../lib/gcc/arm-none-eabi/4.7.4/../../../../arm-none-eabi/lib/armv7e-m\libg.a(lib_a-printf.o) (_vfprintf_r)
c:/program files (x86)/eclipse-arm-eseo/gcc-arm-none-eabi-4_7-2013q2-20130614-win32/gnu tools arm embedded/4.7 2013q2/bin/../lib/gcc/arm-none-eabi/4.7.4/../../../../arm-none-eabi/lib/armv7e-m\libg.a(lib_a-vprintf.o)
                              ./QS/QS_outputlog.o (vprintf)
c:/program files (x86)/eclipse-arm-eseo/gcc-arm-none-eabi-4_7-2013q2-20130614-win32/gnu tools arm embedded/4.7 2013q2/bin/../lib/gcc/arm-none-eabi/4.7.4/../../../../arm-none-eabi/lib/armv7e-m\libg.a(lib_a-wsetup.o)
                              c:/program files (x86)/eclipse-arm-eseo/gcc-arm-none-eabi-4_7-2013q2-20130614-win32/gnu tools arm embedded/4.7 2013q2/bin/../lib/gcc/arm-none-eabi/4.7.4/../../../../arm-none-eabi/lib/armv7e-m\libg.a(lib_a-vfprintf.o) (__swsetup_r)
c:/program files (x86)/eclipse-arm-eseo/gcc-arm-none-eabi-4_7-2013q2-20130614-win32/gnu tools arm embedded/4.7 2013q2/bin/../lib/gcc/arm-none-eabi/4.7.4/../../../../arm-none-eabi/lib/armv7e-m\libg.a(lib_a-dtoa.o)
                              c:/program files (x86)/eclipse-arm-eseo/gcc-arm-none-eabi-4_7-2013q2-20130614-win32/gnu tools arm embedded/4.7 2013q2/bin/../lib/gcc/arm-none-eabi/4.7.4/../../../../arm-none-eabi/lib/armv7e-m\libg.a(lib_a-vfprintf.o) (_dtoa_r)
c:/program files (x86)/eclipse-arm-eseo/gcc-arm-none-eabi-4_7-2013q2-20130614-win32/gnu tools arm embedded/4.7 2013q2/bin/../lib/gcc/arm-none-eabi/4.7.4/../../../../arm-none-eabi/lib/armv7e-m\libg.a(lib_a-fflush.o)
                              c:/program files (x86)/eclipse-arm-eseo/gcc-arm-none-eabi-4_7-2013q2-20130614-win32/gnu tools arm embedded/4.7 2013q2/bin/../lib/gcc/arm-none-eabi/4.7.4/../../../../arm-none-eabi/lib/armv7e-m\libg.a(lib_a-setvbuf.o) (_fflush_r)
c:/program files (x86)/eclipse-arm-eseo/gcc-arm-none-eabi-4_7-2013q2-20130614-win32/gnu tools arm embedded/4.7 2013q2/bin/../lib/gcc/arm-none-eabi/4.7.4/../../../../arm-none-eabi/lib/armv7e-m\libg.a(lib_a-findfp.o)
                              c:/program files (x86)/eclipse-arm-eseo/gcc-arm-none-eabi-4_7-2013q2-20130614-win32/gnu tools arm embedded/4.7 2013q2/bin/../lib/gcc/arm-none-eabi/4.7.4/../../../../arm-none-eabi/lib/armv7e-m\libg.a(lib_a-setvbuf.o) (_cleanup_r)
c:/program files (x86)/eclipse-arm-eseo/gcc-arm-none-eabi-4_7-2013q2-20130614-win32/gnu tools arm embedded/4.7 2013q2/bin/../lib/gcc/arm-none-eabi/4.7.4/../../../../arm-none-eabi/lib/armv7e-m\libg.a(lib_a-freer.o)
                              c:/program files (x86)/eclipse-arm-eseo/gcc-arm-none-eabi-4_7-2013q2-20130614-win32/gnu tools arm embedded/4.7 2013q2/bin/../lib/gcc/arm-none-eabi/4.7.4/../../../../arm-none-eabi/lib/armv7e-m\libg.a(lib_a-setvbuf.o) (_free_r)
c:/program files (x86)/eclipse-arm-eseo/gcc-arm-none-eabi-4_7-2013q2-20130614-win32/gnu tools arm embedded/4.7 2013q2/bin/../lib/gcc/arm-none-eabi/4.7.4/../../../../arm-none-eabi/lib/armv7e-m\libg.a(lib_a-fwalk.o)
                              c:/program files (x86)/eclipse-arm-eseo/gcc-arm-none-eabi-4_7-2013q2-20130614-win32/gnu tools arm embedded/4.7 2013q2/bin/../lib/gcc/arm-none-eabi/4.7.4/../../../../arm-none-eabi/lib/armv7e-m\libg.a(lib_a-findfp.o) (_fwalk)
c:/program files (x86)/eclipse-arm-eseo/gcc-arm-none-eabi-4_7-2013q2-20130614-win32/gnu tools arm embedded/4.7 2013q2/bin/../lib/gcc/arm-none-eabi/4.7.4/../../../../arm-none-eabi/lib/armv7e-m\libg.a(lib_a-locale.o)
                              c:/program files (x86)/eclipse-arm-eseo/gcc-arm-none-eabi-4_7-2013q2-20130614-win32/gnu tools arm embedded/4.7 2013q2/bin/../lib/gcc/arm-none-eabi/4.7.4/../../../../arm-none-eabi/lib/armv7e-m\libg.a(lib_a-vfprintf.o) (_localeconv_r)
c:/program files (x86)/eclipse-arm-eseo/gcc-arm-none-eabi-4_7-2013q2-20130614-win32/gnu tools arm embedded/4.7 2013q2/bin/../lib/gcc/arm-none-eabi/4.7.4/../../../../arm-none-eabi/lib/armv7e-m\libg.a(lib_a-makebuf.o)
                              c:/program files (x86)/eclipse-arm-eseo/gcc-arm-none-eabi-4_7-2013q2-20130614-win32/gnu tools arm embedded/4.7 2013q2/bin/../lib/gcc/arm-none-eabi/4.7.4/../../../../arm-none-eabi/lib/armv7e-m\libg.a(lib_a-wsetup.o) (__smakebuf_r)
c:/program files (x86)/eclipse-arm-eseo/gcc-arm-none-eabi-4_7-2013q2-20130614-win32/gnu tools arm embedded/4.7 2013q2/bin/../lib/gcc/arm-none-eabi/4.7.4/../../../../arm-none-eabi/lib/armv7e-m\libg.a(lib_a-malloc.o)
                              c:/program files (x86)/eclipse-arm-eseo/gcc-arm-none-eabi-4_7-2013q2-20130614-win32/gnu tools arm embedded/4.7 2013q2/bin/../lib/gcc/arm-none-eabi/4.7.4/../../../../arm-none-eabi/lib/armv7e-m\libg.a(lib_a-setvbuf.o) (malloc)
c:/program files (x86)/eclipse-arm-eseo/gcc-arm-none-eabi-4_7-2013q2-20130614-win32/gnu tools arm embedded/4.7 2013q2/bin/../lib/gcc/arm-none-eabi/4.7.4/../../../../arm-none-eabi/lib/armv7e-m\libg.a(lib_a-mallocr.o)
                              c:/program files (x86)/eclipse-arm-eseo/gcc-arm-none-eabi-4_7-2013q2-20130614-win32/gnu tools arm embedded/4.7 2013q2/bin/../lib/gcc/arm-none-eabi/4.7.4/../../../../arm-none-eabi/lib/armv7e-m\libg.a(lib_a-findfp.o) (_malloc_r)
c:/program files (x86)/eclipse-arm-eseo/gcc-arm-none-eabi-4_7-2013q2-20130614-win32/gnu tools arm embedded/4.7 2013q2/bin/../lib/gcc/arm-none-eabi/4.7.4/../../../../arm-none-eabi/lib/armv7e-m\libg.a(lib_a-memchr.o)
                              c:/program files (x86)/eclipse-arm-eseo/gcc-arm-none-eabi-4_7-2013q2-20130614-win32/gnu tools arm embedded/4.7 2013q2/bin/../lib/gcc/arm-none-eabi/4.7.4/../../../../arm-none-eabi/lib/armv7e-m\libg.a(lib_a-vfprintf.o) (memchr)
c:/program files (x86)/eclipse-arm-eseo/gcc-arm-none-eabi-4_7-2013q2-20130614-win32/gnu tools arm embedded/4.7 2013q2/bin/../lib/gcc/arm-none-eabi/4.7.4/../../../../arm-none-eabi/lib/armv7e-m\libg.a(lib_a-memcpy.o)
                              c:/program files (x86)/eclipse-arm-eseo/gcc-arm-none-eabi-4_7-2013q2-20130614-win32/gnu tools arm embedded/4.7 2013q2/bin/../lib/gcc/arm-none-eabi/4.7.4/../../../../arm-none-eabi/lib/armv7e-m\libg.a(lib_a-dtoa.o) (memcpy)
c:/program files (x86)/eclipse-arm-eseo/gcc-arm-none-eabi-4_7-2013q2-20130614-win32/gnu tools arm embedded/4.7 2013q2/bin/../lib/gcc/arm-none-eabi/4.7.4/../../../../arm-none-eabi/lib/armv7e-m\libg.a(lib_a-memset.o)
                              c:/program files (x86)/eclipse-arm-eseo/gcc-arm-none-eabi-4_7-2013q2-20130614-win32/gnu tools arm embedded/4.7 2013q2/bin/../lib/gcc/arm-none-eabi/4.7.4/../../../../arm-none-eabi/lib/armv7e-m\libg.a(lib_a-findfp.o) (memset)
c:/program files (x86)/eclipse-arm-eseo/gcc-arm-none-eabi-4_7-2013q2-20130614-win32/gnu tools arm embedded/4.7 2013q2/bin/../lib/gcc/arm-none-eabi/4.7.4/../../../../arm-none-eabi/lib/armv7e-m\libg.a(lib_a-mlock.o)
                              c:/program files (x86)/eclipse-arm-eseo/gcc-arm-none-eabi-4_7-2013q2-20130614-win32/gnu tools arm embedded/4.7 2013q2/bin/../lib/gcc/arm-none-eabi/4.7.4/../../../../arm-none-eabi/lib/armv7e-m\libg.a(lib_a-freer.o) (__malloc_lock)
c:/program files (x86)/eclipse-arm-eseo/gcc-arm-none-eabi-4_7-2013q2-20130614-win32/gnu tools arm embedded/4.7 2013q2/bin/../lib/gcc/arm-none-eabi/4.7.4/../../../../arm-none-eabi/lib/armv7e-m\libg.a(lib_a-mprec.o)
                              c:/program files (x86)/eclipse-arm-eseo/gcc-arm-none-eabi-4_7-2013q2-20130614-win32/gnu tools arm embedded/4.7 2013q2/bin/../lib/gcc/arm-none-eabi/4.7.4/../../../../arm-none-eabi/lib/armv7e-m\libg.a(lib_a-dtoa.o) (_Balloc)
c:/program files (x86)/eclipse-arm-eseo/gcc-arm-none-eabi-4_7-2013q2-20130614-win32/gnu tools arm embedded/4.7 2013q2/bin/../lib/gcc/arm-none-eabi/4.7.4/../../../../arm-none-eabi/lib/armv7e-m\libg.a(lib_a-s_fpclassify.o)
                              c:/program files (x86)/eclipse-arm-eseo/gcc-arm-none-eabi-4_7-2013q2-20130614-win32/gnu tools arm embedded/4.7 2013q2/bin/../lib/gcc/arm-none-eabi/4.7.4/../../../../arm-none-eabi/lib/armv7e-m\libg.a(lib_a-vfprintf.o) (__fpclassifyd)
c:/program files (x86)/eclipse-arm-eseo/gcc-arm-none-eabi-4_7-2013q2-20130614-win32/gnu tools arm embedded/4.7 2013q2/bin/../lib/gcc/arm-none-eabi/4.7.4/../../../../arm-none-eabi/lib/armv7e-m\libg.a(lib_a-sbrkr.o)
                              c:/program files (x86)/eclipse-arm-eseo/gcc-arm-none-eabi-4_7-2013q2-20130614-win32/gnu tools arm embedded/4.7 2013q2/bin/../lib/gcc/arm-none-eabi/4.7.4/../../../../arm-none-eabi/lib/armv7e-m\libg.a(lib_a-freer.o) (_sbrk_r)
c:/program files (x86)/eclipse-arm-eseo/gcc-arm-none-eabi-4_7-2013q2-20130614-win32/gnu tools arm embedded/4.7 2013q2/bin/../lib/gcc/arm-none-eabi/4.7.4/../../../../arm-none-eabi/lib/armv7e-m\libg.a(lib_a-stdio.o)
                              c:/program files (x86)/eclipse-arm-eseo/gcc-arm-none-eabi-4_7-2013q2-20130614-win32/gnu tools arm embedded/4.7 2013q2/bin/../lib/gcc/arm-none-eabi/4.7.4/../../../../arm-none-eabi/lib/armv7e-m\libg.a(lib_a-findfp.o) (__sread)
c:/program files (x86)/eclipse-arm-eseo/gcc-arm-none-eabi-4_7-2013q2-20130614-win32/gnu tools arm embedded/4.7 2013q2/bin/../lib/gcc/arm-none-eabi/4.7.4/../../../../arm-none-eabi/lib/armv7e-m\libg.a(lib_a-strcmp.o)
                              c:/program files (x86)/eclipse-arm-eseo/gcc-arm-none-eabi-4_7-2013q2-20130614-win32/gnu tools arm embedded/4.7 2013q2/bin/../lib/gcc/arm-none-eabi/4.7.4/../../../../arm-none-eabi/lib/armv7e-m\libg.a(lib_a-locale.o) (strcmp)
c:/program files (x86)/eclipse-arm-eseo/gcc-arm-none-eabi-4_7-2013q2-20130614-win32/gnu tools arm embedded/4.7 2013q2/bin/../lib/gcc/arm-none-eabi/4.7.4/../../../../arm-none-eabi/lib/armv7e-m\libg.a(lib_a-strlen.o)
                              c:/program files (x86)/eclipse-arm-eseo/gcc-arm-none-eabi-4_7-2013q2-20130614-win32/gnu tools arm embedded/4.7 2013q2/bin/../lib/gcc/arm-none-eabi/4.7.4/../../../../arm-none-eabi/lib/armv7e-m\libg.a(lib_a-vfprintf.o) (strlen)
c:/program files (x86)/eclipse-arm-eseo/gcc-arm-none-eabi-4_7-2013q2-20130614-win32/gnu tools arm embedded/4.7 2013q2/bin/../lib/gcc/arm-none-eabi/4.7.4/../../../../arm-none-eabi/lib/armv7e-m\libg.a(lib_a-vfiprintf.o)
                              c:/program files (x86)/eclipse-arm-eseo/gcc-arm-none-eabi-4_7-2013q2-20130614-win32/gnu tools arm embedded/4.7 2013q2/bin/../lib/gcc/arm-none-eabi/4.7.4/../../../../arm-none-eabi/lib/armv7e-m\libg.a(lib_a-vfprintf.o) (__sprint_r)
c:/program files (x86)/eclipse-arm-eseo/gcc-arm-none-eabi-4_7-2013q2-20130614-win32/gnu tools arm embedded/4.7 2013q2/bin/../lib/gcc/arm-none-eabi/4.7.4/../../../../arm-none-eabi/lib/armv7e-m\libg.a(lib_a-writer.o)
                              c:/program files (x86)/eclipse-arm-eseo/gcc-arm-none-eabi-4_7-2013q2-20130614-win32/gnu tools arm embedded/4.7 2013q2/bin/../lib/gcc/arm-none-eabi/4.7.4/../../../../arm-none-eabi/lib/armv7e-m\libg.a(lib_a-stdio.o) (_write_r)
c:/program files (x86)/eclipse-arm-eseo/gcc-arm-none-eabi-4_7-2013q2-20130614-win32/gnu tools arm embedded/4.7 2013q2/bin/../lib/gcc/arm-none-eabi/4.7.4/../../../../arm-none-eabi/lib/armv7e-m\libg.a(lib_a-callocr.o)
                              c:/program files (x86)/eclipse-arm-eseo/gcc-arm-none-eabi-4_7-2013q2-20130614-win32/gnu tools arm embedded/4.7 2013q2/bin/../lib/gcc/arm-none-eabi/4.7.4/../../../../arm-none-eabi/lib/armv7e-m\libg.a(lib_a-mprec.o) (_calloc_r)
c:/program files (x86)/eclipse-arm-eseo/gcc-arm-none-eabi-4_7-2013q2-20130614-win32/gnu tools arm embedded/4.7 2013q2/bin/../lib/gcc/arm-none-eabi/4.7.4/../../../../arm-none-eabi/lib/armv7e-m\libg.a(lib_a-closer.o)
                              c:/program files (x86)/eclipse-arm-eseo/gcc-arm-none-eabi-4_7-2013q2-20130614-win32/gnu tools arm embedded/4.7 2013q2/bin/../lib/gcc/arm-none-eabi/4.7.4/../../../../arm-none-eabi/lib/armv7e-m\libg.a(lib_a-stdio.o) (_close_r)
c:/program files (x86)/eclipse-arm-eseo/gcc-arm-none-eabi-4_7-2013q2-20130614-win32/gnu tools arm embedded/4.7 2013q2/bin/../lib/gcc/arm-none-eabi/4.7.4/../../../../arm-none-eabi/lib/armv7e-m\libg.a(lib_a-fclose.o)
                              c:/program files (x86)/eclipse-arm-eseo/gcc-arm-none-eabi-4_7-2013q2-20130614-win32/gnu tools arm embedded/4.7 2013q2/bin/../lib/gcc/arm-none-eabi/4.7.4/../../../../arm-none-eabi/lib/armv7e-m\libg.a(lib_a-findfp.o) (fclose)
c:/program files (x86)/eclipse-arm-eseo/gcc-arm-none-eabi-4_7-2013q2-20130614-win32/gnu tools arm embedded/4.7 2013q2/bin/../lib/gcc/arm-none-eabi/4.7.4/../../../../arm-none-eabi/lib/armv7e-m\libg.a(lib_a-fputwc.o)
                              c:/program files (x86)/eclipse-arm-eseo/gcc-arm-none-eabi-4_7-2013q2-20130614-win32/gnu tools arm embedded/4.7 2013q2/bin/../lib/gcc/arm-none-eabi/4.7.4/../../../../arm-none-eabi/lib/armv7e-m\libg.a(lib_a-vfiprintf.o) (_fputwc_r)
c:/program files (x86)/eclipse-arm-eseo/gcc-arm-none-eabi-4_7-2013q2-20130614-win32/gnu tools arm embedded/4.7 2013q2/bin/../lib/gcc/arm-none-eabi/4.7.4/../../../../arm-none-eabi/lib/armv7e-m\libg.a(lib_a-fstatr.o)
                              c:/program files (x86)/eclipse-arm-eseo/gcc-arm-none-eabi-4_7-2013q2-20130614-win32/gnu tools arm embedded/4.7 2013q2/bin/../lib/gcc/arm-none-eabi/4.7.4/../../../../arm-none-eabi/lib/armv7e-m\libg.a(lib_a-makebuf.o) (_fstat_r)
c:/program files (x86)/eclipse-arm-eseo/gcc-arm-none-eabi-4_7-2013q2-20130614-win32/gnu tools arm embedded/4.7 2013q2/bin/../lib/gcc/arm-none-eabi/4.7.4/../../../../arm-none-eabi/lib/armv7e-m\libg.a(lib_a-fvwrite.o)
                              c:/program files (x86)/eclipse-arm-eseo/gcc-arm-none-eabi-4_7-2013q2-20130614-win32/gnu tools arm embedded/4.7 2013q2/bin/../lib/gcc/arm-none-eabi/4.7.4/../../../../arm-none-eabi/lib/armv7e-m\libg.a(lib_a-vfiprintf.o) (__sfvwrite_r)
c:/program files (x86)/eclipse-arm-eseo/gcc-arm-none-eabi-4_7-2013q2-20130614-win32/gnu tools arm embedded/4.7 2013q2/bin/../lib/gcc/arm-none-eabi/4.7.4/../../../../arm-none-eabi/lib/armv7e-m\libg.a(lib_a-isattyr.o)
                              c:/program files (x86)/eclipse-arm-eseo/gcc-arm-none-eabi-4_7-2013q2-20130614-win32/gnu tools arm embedded/4.7 2013q2/bin/../lib/gcc/arm-none-eabi/4.7.4/../../../../arm-none-eabi/lib/armv7e-m\libg.a(lib_a-makebuf.o) (_isatty_r)
c:/program files (x86)/eclipse-arm-eseo/gcc-arm-none-eabi-4_7-2013q2-20130614-win32/gnu tools arm embedded/4.7 2013q2/bin/../lib/gcc/arm-none-eabi/4.7.4/../../../../arm-none-eabi/lib/armv7e-m\libg.a(lib_a-lseekr.o)
                              c:/program files (x86)/eclipse-arm-eseo/gcc-arm-none-eabi-4_7-2013q2-20130614-win32/gnu tools arm embedded/4.7 2013q2/bin/../lib/gcc/arm-none-eabi/4.7.4/../../../../arm-none-eabi/lib/armv7e-m\libg.a(lib_a-stdio.o) (_lseek_r)
c:/program files (x86)/eclipse-arm-eseo/gcc-arm-none-eabi-4_7-2013q2-20130614-win32/gnu tools arm embedded/4.7 2013q2/bin/../lib/gcc/arm-none-eabi/4.7.4/../../../../arm-none-eabi/lib/armv7e-m\libg.a(lib_a-memmove.o)
                              c:/program files (x86)/eclipse-arm-eseo/gcc-arm-none-eabi-4_7-2013q2-20130614-win32/gnu tools arm embedded/4.7 2013q2/bin/../lib/gcc/arm-none-eabi/4.7.4/../../../../arm-none-eabi/lib/armv7e-m\libg.a(lib_a-fvwrite.o) (memmove)
c:/program files (x86)/eclipse-arm-eseo/gcc-arm-none-eabi-4_7-2013q2-20130614-win32/gnu tools arm embedded/4.7 2013q2/bin/../lib/gcc/arm-none-eabi/4.7.4/../../../../arm-none-eabi/lib/armv7e-m\libg.a(lib_a-readr.o)
                              c:/program files (x86)/eclipse-arm-eseo/gcc-arm-none-eabi-4_7-2013q2-20130614-win32/gnu tools arm embedded/4.7 2013q2/bin/../lib/gcc/arm-none-eabi/4.7.4/../../../../arm-none-eabi/lib/armv7e-m\libg.a(lib_a-stdio.o) (_read_r)
c:/program files (x86)/eclipse-arm-eseo/gcc-arm-none-eabi-4_7-2013q2-20130614-win32/gnu tools arm embedded/4.7 2013q2/bin/../lib/gcc/arm-none-eabi/4.7.4/../../../../arm-none-eabi/lib/armv7e-m\libg.a(lib_a-reallocr.o)
                              c:/program files (x86)/eclipse-arm-eseo/gcc-arm-none-eabi-4_7-2013q2-20130614-win32/gnu tools arm embedded/4.7 2013q2/bin/../lib/gcc/arm-none-eabi/4.7.4/../../../../arm-none-eabi/lib/armv7e-m\libg.a(lib_a-fvwrite.o) (_realloc_r)
c:/program files (x86)/eclipse-arm-eseo/gcc-arm-none-eabi-4_7-2013q2-20130614-win32/gnu tools arm embedded/4.7 2013q2/bin/../lib/gcc/arm-none-eabi/4.7.4/../../../../arm-none-eabi/lib/armv7e-m\libg.a(lib_a-reent.o)
                              c:/program files (x86)/eclipse-arm-eseo/gcc-arm-none-eabi-4_7-2013q2-20130614-win32/gnu tools arm embedded/4.7 2013q2/bin/../lib/gcc/arm-none-eabi/4.7.4/../../../../arm-none-eabi/lib/armv7e-m\libg.a(lib_a-sbrkr.o) (errno)
c:/program files (x86)/eclipse-arm-eseo/gcc-arm-none-eabi-4_7-2013q2-20130614-win32/gnu tools arm embedded/4.7 2013q2/bin/../lib/gcc/arm-none-eabi/4.7.4/../../../../arm-none-eabi/lib/armv7e-m\libg.a(lib_a-wbuf.o)
                              c:/program files (x86)/eclipse-arm-eseo/gcc-arm-none-eabi-4_7-2013q2-20130614-win32/gnu tools arm embedded/4.7 2013q2/bin/../lib/gcc/arm-none-eabi/4.7.4/../../../../arm-none-eabi/lib/armv7e-m\libg.a(lib_a-fputwc.o) (__swbuf_r)
c:/program files (x86)/eclipse-arm-eseo/gcc-arm-none-eabi-4_7-2013q2-20130614-win32/gnu tools arm embedded/4.7 2013q2/bin/../lib/gcc/arm-none-eabi/4.7.4/../../../../arm-none-eabi/lib/armv7e-m\libg.a(lib_a-wcrtomb.o)
                              c:/program files (x86)/eclipse-arm-eseo/gcc-arm-none-eabi-4_7-2013q2-20130614-win32/gnu tools arm embedded/4.7 2013q2/bin/../lib/gcc/arm-none-eabi/4.7.4/../../../../arm-none-eabi/lib/armv7e-m\libg.a(lib_a-fputwc.o) (_wcrtomb_r)
c:/program files (x86)/eclipse-arm-eseo/gcc-arm-none-eabi-4_7-2013q2-20130614-win32/gnu tools arm embedded/4.7 2013q2/bin/../lib/gcc/arm-none-eabi/4.7.4/../../../../arm-none-eabi/lib/armv7e-m\libg.a(lib_a-wctomb_r.o)
                              c:/program files (x86)/eclipse-arm-eseo/gcc-arm-none-eabi-4_7-2013q2-20130614-win32/gnu tools arm embedded/4.7 2013q2/bin/../lib/gcc/arm-none-eabi/4.7.4/../../../../arm-none-eabi/lib/armv7e-m\libg.a(lib_a-wcrtomb.o) (__wctomb)
c:/program files (x86)/eclipse-arm-eseo/gcc-arm-none-eabi-4_7-2013q2-20130614-win32/gnu tools arm embedded/4.7 2013q2/bin/../lib/gcc/arm-none-eabi/4.7.4/armv7e-m\libgcc.a(_arm_cmpdf2.o)
                              c:/program files (x86)/eclipse-arm-eseo/gcc-arm-none-eabi-4_7-2013q2-20130614-win32/gnu tools arm embedded/4.7 2013q2/bin/../lib/gcc/arm-none-eabi/4.7.4/../../../../arm-none-eabi/lib/armv7e-m\libg.a(lib_a-vfprintf.o) (__aeabi_dcmpeq)
c:/program files (x86)/eclipse-arm-eseo/gcc-arm-none-eabi-4_7-2013q2-20130614-win32/gnu tools arm embedded/4.7 2013q2/bin/../lib/gcc/arm-none-eabi/4.7.4/armv7e-m\libgcc.a(_aeabi_uldivmod.o)
                              c:/program files (x86)/eclipse-arm-eseo/gcc-arm-none-eabi-4_7-2013q2-20130614-win32/gnu tools arm embedded/4.7 2013q2/bin/../lib/gcc/arm-none-eabi/4.7.4/../../../../arm-none-eabi/lib/armv7e-m\libg.a(lib_a-vfprintf.o) (__aeabi_uldivmod)
c:/program files (x86)/eclipse-arm-eseo/gcc-arm-none-eabi-4_7-2013q2-20130614-win32/gnu tools arm embedded/4.7 2013q2/bin/../lib/gcc/arm-none-eabi/4.7.4/armv7e-m\libgcc.a(bpabi.o)
                              c:/program files (x86)/eclipse-arm-eseo/gcc-arm-none-eabi-4_7-2013q2-20130614-win32/gnu tools arm embedded/4.7 2013q2/bin/../lib/gcc/arm-none-eabi/4.7.4/armv7e-m\libgcc.a(_aeabi_uldivmod.o) (__gnu_uldivmod_helper)
c:/program files (x86)/eclipse-arm-eseo/gcc-arm-none-eabi-4_7-2013q2-20130614-win32/gnu tools arm embedded/4.7 2013q2/bin/../lib/gcc/arm-none-eabi/4.7.4/armv7e-m\libgcc.a(_dvmd_tls.o)
                              c:/program files (x86)/eclipse-arm-eseo/gcc-arm-none-eabi-4_7-2013q2-20130614-win32/gnu tools arm embedded/4.7 2013q2/bin/../lib/gcc/arm-none-eabi/4.7.4/armv7e-m\libgcc.a(_aeabi_uldivmod.o) (__aeabi_ldiv0)
c:/program files (x86)/eclipse-arm-eseo/gcc-arm-none-eabi-4_7-2013q2-20130614-win32/gnu tools arm embedded/4.7 2013q2/bin/../lib/gcc/arm-none-eabi/4.7.4/armv7e-m\libgcc.a(_divdi3.o)
                              c:/program files (x86)/eclipse-arm-eseo/gcc-arm-none-eabi-4_7-2013q2-20130614-win32/gnu tools arm embedded/4.7 2013q2/bin/../lib/gcc/arm-none-eabi/4.7.4/armv7e-m\libgcc.a(bpabi.o) (__divdi3)
c:/program files (x86)/eclipse-arm-eseo/gcc-arm-none-eabi-4_7-2013q2-20130614-win32/gnu tools arm embedded/4.7 2013q2/bin/../lib/gcc/arm-none-eabi/4.7.4/armv7e-m\libgcc.a(_udivdi3.o)
                              c:/program files (x86)/eclipse-arm-eseo/gcc-arm-none-eabi-4_7-2013q2-20130614-win32/gnu tools arm embedded/4.7 2013q2/bin/../lib/gcc/arm-none-eabi/4.7.4/armv7e-m\libgcc.a(bpabi.o) (__udivdi3)
c:/program files (x86)/eclipse-arm-eseo/gcc-arm-none-eabi-4_7-2013q2-20130614-win32/gnu tools arm embedded/4.7 2013q2/bin/../lib/gcc/arm-none-eabi/4.7.4/../../../../arm-none-eabi/lib/armv7e-m\libm.a(lib_a-s_atan.o)
                              ./maths_home.o (atan)
c:/program files (x86)/eclipse-arm-eseo/gcc-arm-none-eabi-4_7-2013q2-20130614-win32/gnu tools arm embedded/4.7 2013q2/bin/../lib/gcc/arm-none-eabi/4.7.4/../../../../arm-none-eabi/lib/armv7e-m\libm.a(lib_a-s_cos.o)
                              ./maths_home.o (cos)
c:/program files (x86)/eclipse-arm-eseo/gcc-arm-none-eabi-4_7-2013q2-20130614-win32/gnu tools arm embedded/4.7 2013q2/bin/../lib/gcc/arm-none-eabi/4.7.4/../../../../arm-none-eabi/lib/armv7e-m\libm.a(lib_a-s_fabs.o)
                              c:/program files (x86)/eclipse-arm-eseo/gcc-arm-none-eabi-4_7-2013q2-20130614-win32/gnu tools arm embedded/4.7 2013q2/bin/../lib/gcc/arm-none-eabi/4.7.4/../../../../arm-none-eabi/lib/armv7e-m\libm.a(lib_a-s_atan.o) (fabs)
c:/program files (x86)/eclipse-arm-eseo/gcc-arm-none-eabi-4_7-2013q2-20130614-win32/gnu tools arm embedded/4.7 2013q2/bin/../lib/gcc/arm-none-eabi/4.7.4/../../../../arm-none-eabi/lib/armv7e-m\libm.a(lib_a-s_sin.o)
                              ./maths_home.o (sin)
c:/program files (x86)/eclipse-arm-eseo/gcc-arm-none-eabi-4_7-2013q2-20130614-win32/gnu tools arm embedded/4.7 2013q2/bin/../lib/gcc/arm-none-eabi/4.7.4/../../../../arm-none-eabi/lib/armv7e-m\libm.a(lib_a-e_rem_pio2.o)
                              c:/program files (x86)/eclipse-arm-eseo/gcc-arm-none-eabi-4_7-2013q2-20130614-win32/gnu tools arm embedded/4.7 2013q2/bin/../lib/gcc/arm-none-eabi/4.7.4/../../../../arm-none-eabi/lib/armv7e-m\libm.a(lib_a-s_cos.o) (__ieee754_rem_pio2)
c:/program files (x86)/eclipse-arm-eseo/gcc-arm-none-eabi-4_7-2013q2-20130614-win32/gnu tools arm embedded/4.7 2013q2/bin/../lib/gcc/arm-none-eabi/4.7.4/../../../../arm-none-eabi/lib/armv7e-m\libm.a(lib_a-k_cos.o)
                              c:/program files (x86)/eclipse-arm-eseo/gcc-arm-none-eabi-4_7-2013q2-20130614-win32/gnu tools arm embedded/4.7 2013q2/bin/../lib/gcc/arm-none-eabi/4.7.4/../../../../arm-none-eabi/lib/armv7e-m\libm.a(lib_a-s_cos.o) (__kernel_cos)
c:/program files (x86)/eclipse-arm-eseo/gcc-arm-none-eabi-4_7-2013q2-20130614-win32/gnu tools arm embedded/4.7 2013q2/bin/../lib/gcc/arm-none-eabi/4.7.4/../../../../arm-none-eabi/lib/armv7e-m\libm.a(lib_a-k_rem_pio2.o)
                              c:/program files (x86)/eclipse-arm-eseo/gcc-arm-none-eabi-4_7-2013q2-20130614-win32/gnu tools arm embedded/4.7 2013q2/bin/../lib/gcc/arm-none-eabi/4.7.4/../../../../arm-none-eabi/lib/armv7e-m\libm.a(lib_a-e_rem_pio2.o) (__kernel_rem_pio2)
c:/program files (x86)/eclipse-arm-eseo/gcc-arm-none-eabi-4_7-2013q2-20130614-win32/gnu tools arm embedded/4.7 2013q2/bin/../lib/gcc/arm-none-eabi/4.7.4/../../../../arm-none-eabi/lib/armv7e-m\libm.a(lib_a-k_sin.o)
                              c:/program files (x86)/eclipse-arm-eseo/gcc-arm-none-eabi-4_7-2013q2-20130614-win32/gnu tools arm embedded/4.7 2013q2/bin/../lib/gcc/arm-none-eabi/4.7.4/../../../../arm-none-eabi/lib/armv7e-m\libm.a(lib_a-s_cos.o) (__kernel_sin)
c:/program files (x86)/eclipse-arm-eseo/gcc-arm-none-eabi-4_7-2013q2-20130614-win32/gnu tools arm embedded/4.7 2013q2/bin/../lib/gcc/arm-none-eabi/4.7.4/../../../../arm-none-eabi/lib/armv7e-m\libm.a(lib_a-s_floor.o)
                              c:/program files (x86)/eclipse-arm-eseo/gcc-arm-none-eabi-4_7-2013q2-20130614-win32/gnu tools arm embedded/4.7 2013q2/bin/../lib/gcc/arm-none-eabi/4.7.4/../../../../arm-none-eabi/lib/armv7e-m\libm.a(lib_a-k_rem_pio2.o) (floor)
c:/program files (x86)/eclipse-arm-eseo/gcc-arm-none-eabi-4_7-2013q2-20130614-win32/gnu tools arm embedded/4.7 2013q2/bin/../lib/gcc/arm-none-eabi/4.7.4/../../../../arm-none-eabi/lib/armv7e-m\libm.a(lib_a-s_scalbn.o)
                              c:/program files (x86)/eclipse-arm-eseo/gcc-arm-none-eabi-4_7-2013q2-20130614-win32/gnu tools arm embedded/4.7 2013q2/bin/../lib/gcc/arm-none-eabi/4.7.4/../../../../arm-none-eabi/lib/armv7e-m\libm.a(lib_a-k_rem_pio2.o) (scalbn)
c:/program files (x86)/eclipse-arm-eseo/gcc-arm-none-eabi-4_7-2013q2-20130614-win32/gnu tools arm embedded/4.7 2013q2/bin/../lib/gcc/arm-none-eabi/4.7.4/../../../../arm-none-eabi/lib/armv7e-m\libm.a(lib_a-s_copysign.o)
                              c:/program files (x86)/eclipse-arm-eseo/gcc-arm-none-eabi-4_7-2013q2-20130614-win32/gnu tools arm embedded/4.7 2013q2/bin/../lib/gcc/arm-none-eabi/4.7.4/../../../../arm-none-eabi/lib/armv7e-m\libm.a(lib_a-s_scalbn.o) (copysign)

Allocating common symbols
Common symbol       size              file

errno               0x4               c:/program files (x86)/eclipse-arm-eseo/gcc-arm-none-eabi-4_7-2013q2-20130614-win32/gnu tools arm embedded/4.7 2013q2/bin/../lib/gcc/arm-none-eabi/4.7.4/../../../../arm-none-eabi/lib/armv7e-m\libg.a(lib_a-reent.o)
callbacks           0x40              ./QS/QS_external_it.o
global              0x1               ./QS/QS_global_vars.o

Discarded input sections

 .group         0x00000000        0x8 ./Tiny/TActManager.o
 .group         0x00000000        0x8 ./Tiny/TActManager.o
 .group         0x00000000        0x8 ./Tiny/TActManager.o
 .group         0x00000000        0x8 ./Tiny/TActManager.o
 .group         0x00000000        0x8 ./Tiny/TActManager.o
 .group         0x00000000        0x8 ./Tiny/TActManager.o
 .group         0x00000000        0x8 ./Tiny/TActManager.o
 .group         0x00000000        0x8 ./Tiny/TActManager.o
 .group         0x00000000        0x8 ./Tiny/TActManager.o
 .group         0x00000000        0x8 ./Tiny/TActManager.o
 .group         0x00000000        0x8 ./Tiny/TActManager.o
 .group         0x00000000        0x8 ./Tiny/TActManager.o
 .group         0x00000000        0x8 ./Tiny/TActManager.o
 .group         0x00000000        0x8 ./Tiny/TActManager.o
 .group         0x00000000        0x8 ./Tiny/TActManager.o
 .group         0x00000000        0x8 ./Tiny/TActManager.o
 .group         0x00000000        0x8 ./Tiny/TActManager.o
 .group         0x00000000        0x8 ./Tiny/TActManager.o
 .group         0x00000000        0x8 ./Tiny/TActManager.o
 .group         0x00000000        0x8 ./Tiny/TActManager.o
 .group         0x00000000        0x8 ./Tiny/TBall_inflater.o
 .group         0x00000000        0x8 ./Tiny/TBall_inflater.o
 .group         0x00000000        0x8 ./Tiny/TBall_inflater.o
 .group         0x00000000        0x8 ./Tiny/TBall_inflater.o
 .group         0x00000000        0x8 ./Tiny/TBall_inflater.o
 .group         0x00000000        0x8 ./Tiny/TBall_inflater.o
 .group         0x00000000        0x8 ./Tiny/TBall_inflater.o
 .group         0x00000000        0x8 ./Tiny/TBall_inflater.o
 .group         0x00000000        0x8 ./Tiny/TBall_inflater.o
 .group         0x00000000        0x8 ./Tiny/TBall_inflater.o
 .group         0x00000000        0x8 ./Tiny/TBall_inflater.o
 .group         0x00000000        0x8 ./Tiny/TBall_inflater.o
 .group         0x00000000        0x8 ./Tiny/TBall_inflater.o
 .group         0x00000000        0x8 ./Tiny/TBall_inflater.o
 .group         0x00000000        0x8 ./Tiny/TBall_inflater.o
 .group         0x00000000        0x8 ./Tiny/TBall_inflater.o
 .group         0x00000000        0x8 ./Tiny/TBall_inflater.o
 .group         0x00000000        0x8 ./Tiny/TBall_inflater.o
 .group         0x00000000        0x8 ./Tiny/TBall_inflater.o
 .group         0x00000000        0x8 ./Tiny/TBall_inflater.o
 .debug_macro   0x00000000      0x7fc ./Tiny/TBall_inflater.o
 .debug_macro   0x00000000       0x69 ./Tiny/TBall_inflater.o
 .debug_macro   0x00000000       0x3b ./Tiny/TBall_inflater.o
 .debug_macro   0x00000000       0x3a ./Tiny/TBall_inflater.o
 .debug_macro   0x00000000       0x10 ./Tiny/TBall_inflater.o
 .debug_macro   0x00000000       0x2e ./Tiny/TBall_inflater.o
 .debug_macro   0x00000000       0xa2 ./Tiny/TBall_inflater.o
 .debug_macro   0x00000000      0x20e ./Tiny/TBall_inflater.o
 .debug_macro   0x00000000       0x18 ./Tiny/TBall_inflater.o
 .debug_macro   0x00000000       0x42 ./Tiny/TBall_inflater.o
 .debug_macro   0x00000000      0xd39 ./Tiny/TBall_inflater.o
 .debug_macro   0x00000000     0x822c ./Tiny/TBall_inflater.o
 .debug_macro   0x00000000      0x576 ./Tiny/TBall_inflater.o
 .debug_macro   0x00000000       0x82 ./Tiny/TBall_inflater.o
 .debug_macro   0x00000000       0x35 ./Tiny/TBall_inflater.o
 .debug_macro   0x00000000       0x10 ./Tiny/TBall_inflater.o
 .debug_macro   0x00000000       0x16 ./Tiny/TBall_inflater.o
 .debug_macro   0x00000000       0x64 ./Tiny/TBall_inflater.o
 .debug_macro   0x00000000       0xac ./Tiny/TBall_inflater.o
 .debug_macro   0x00000000       0x7c ./Tiny/TBall_inflater.o
 .group         0x00000000        0x8 ./Tiny/TCandle_color_sensor.o
 .group         0x00000000        0x8 ./Tiny/TCandle_color_sensor.o
 .group         0x00000000        0x8 ./Tiny/TCandle_color_sensor.o
 .group         0x00000000        0x8 ./Tiny/TCandle_color_sensor.o
 .group         0x00000000        0x8 ./Tiny/TCandle_color_sensor.o
 .group         0x00000000        0x8 ./Tiny/TCandle_color_sensor.o
 .group         0x00000000        0x8 ./Tiny/TCandle_color_sensor.o
 .group         0x00000000        0x8 ./Tiny/TCandle_color_sensor.o
 .group         0x00000000        0x8 ./Tiny/TCandle_color_sensor.o
 .group         0x00000000        0x8 ./Tiny/TCandle_color_sensor.o
 .group         0x00000000        0x8 ./Tiny/TCandle_color_sensor.o
 .group         0x00000000        0x8 ./Tiny/TCandle_color_sensor.o
 .group         0x00000000        0x8 ./Tiny/TCandle_color_sensor.o
 .group         0x00000000        0x8 ./Tiny/TCandle_color_sensor.o
 .group         0x00000000        0x8 ./Tiny/TCandle_color_sensor.o
 .group         0x00000000        0x8 ./Tiny/TCandle_color_sensor.o
 .group         0x00000000        0x8 ./Tiny/TCandle_color_sensor.o
 .group         0x00000000        0x8 ./Tiny/TCandle_color_sensor.o
 .group         0x00000000        0x8 ./Tiny/TCandle_color_sensor.o
 .group         0x00000000        0x8 ./Tiny/TCandle_color_sensor.o
 .debug_macro   0x00000000      0x7fc ./Tiny/TCandle_color_sensor.o
 .debug_macro   0x00000000       0x69 ./Tiny/TCandle_color_sensor.o
 .debug_macro   0x00000000       0x3b ./Tiny/TCandle_color_sensor.o
 .debug_macro   0x00000000       0x3a ./Tiny/TCandle_color_sensor.o
 .debug_macro   0x00000000       0x10 ./Tiny/TCandle_color_sensor.o
 .debug_macro   0x00000000       0x2e ./Tiny/TCandle_color_sensor.o
 .debug_macro   0x00000000       0xa2 ./Tiny/TCandle_color_sensor.o
 .debug_macro   0x00000000      0x20e ./Tiny/TCandle_color_sensor.o
 .debug_macro   0x00000000       0x18 ./Tiny/TCandle_color_sensor.o
 .debug_macro   0x00000000       0x42 ./Tiny/TCandle_color_sensor.o
 .debug_macro   0x00000000      0xd39 ./Tiny/TCandle_color_sensor.o
 .debug_macro   0x00000000     0x822c ./Tiny/TCandle_color_sensor.o
 .debug_macro   0x00000000      0x576 ./Tiny/TCandle_color_sensor.o
 .debug_macro   0x00000000       0x82 ./Tiny/TCandle_color_sensor.o
 .debug_macro   0x00000000       0x35 ./Tiny/TCandle_color_sensor.o
 .debug_macro   0x00000000       0x10 ./Tiny/TCandle_color_sensor.o
 .debug_macro   0x00000000       0x16 ./Tiny/TCandle_color_sensor.o
 .debug_macro   0x00000000       0x64 ./Tiny/TCandle_color_sensor.o
 .debug_macro   0x00000000       0xac ./Tiny/TCandle_color_sensor.o
 .debug_macro   0x00000000       0x7c ./Tiny/TCandle_color_sensor.o
 .group         0x00000000        0x8 ./Tiny/THammer.o
 .group         0x00000000        0x8 ./Tiny/THammer.o
 .group         0x00000000        0x8 ./Tiny/THammer.o
 .group         0x00000000        0x8 ./Tiny/THammer.o
 .group         0x00000000        0x8 ./Tiny/THammer.o
 .group         0x00000000        0x8 ./Tiny/THammer.o
 .group         0x00000000        0x8 ./Tiny/THammer.o
 .group         0x00000000        0x8 ./Tiny/THammer.o
 .group         0x00000000        0x8 ./Tiny/THammer.o
 .group         0x00000000        0x8 ./Tiny/THammer.o
 .group         0x00000000        0x8 ./Tiny/THammer.o
 .group         0x00000000        0x8 ./Tiny/THammer.o
 .group         0x00000000        0x8 ./Tiny/THammer.o
 .group         0x00000000        0x8 ./Tiny/THammer.o
 .group         0x00000000        0x8 ./Tiny/THammer.o
 .group         0x00000000        0x8 ./Tiny/THammer.o
 .group         0x00000000        0x8 ./Tiny/THammer.o
 .group         0x00000000        0x8 ./Tiny/THammer.o
 .group         0x00000000        0x8 ./Tiny/THammer.o
 .group         0x00000000        0x8 ./Tiny/THammer.o
 .debug_macro   0x00000000      0x7fc ./Tiny/THammer.o
 .debug_macro   0x00000000       0x69 ./Tiny/THammer.o
 .debug_macro   0x00000000       0x3b ./Tiny/THammer.o
 .debug_macro   0x00000000       0x3a ./Tiny/THammer.o
 .debug_macro   0x00000000       0x10 ./Tiny/THammer.o
 .debug_macro   0x00000000       0x2e ./Tiny/THammer.o
 .debug_macro   0x00000000       0xa2 ./Tiny/THammer.o
 .debug_macro   0x00000000      0x20e ./Tiny/THammer.o
 .debug_macro   0x00000000       0x18 ./Tiny/THammer.o
 .debug_macro   0x00000000       0x42 ./Tiny/THammer.o
 .debug_macro   0x00000000      0xd39 ./Tiny/THammer.o
 .debug_macro   0x00000000     0x822c ./Tiny/THammer.o
 .debug_macro   0x00000000      0x576 ./Tiny/THammer.o
 .debug_macro   0x00000000       0x82 ./Tiny/THammer.o
 .debug_macro   0x00000000       0x35 ./Tiny/THammer.o
 .debug_macro   0x00000000       0x10 ./Tiny/THammer.o
 .debug_macro   0x00000000       0x16 ./Tiny/THammer.o
 .debug_macro   0x00000000       0x64 ./Tiny/THammer.o
 .debug_macro   0x00000000       0xac ./Tiny/THammer.o
 .debug_macro   0x00000000       0x7c ./Tiny/THammer.o
 .group         0x00000000        0x8 ./Tiny/TPlier.o
 .group         0x00000000        0x8 ./Tiny/TPlier.o
 .group         0x00000000        0x8 ./Tiny/TPlier.o
 .group         0x00000000        0x8 ./Tiny/TPlier.o
 .group         0x00000000        0x8 ./Tiny/TPlier.o
 .group         0x00000000        0x8 ./Tiny/TPlier.o
 .group         0x00000000        0x8 ./Tiny/TPlier.o
 .group         0x00000000        0x8 ./Tiny/TPlier.o
 .group         0x00000000        0x8 ./Tiny/TPlier.o
 .group         0x00000000        0x8 ./Tiny/TPlier.o
 .group         0x00000000        0x8 ./Tiny/TPlier.o
 .group         0x00000000        0x8 ./Tiny/TPlier.o
 .group         0x00000000        0x8 ./Tiny/TPlier.o
 .group         0x00000000        0x8 ./Tiny/TPlier.o
 .group         0x00000000        0x8 ./Tiny/TPlier.o
 .group         0x00000000        0x8 ./Tiny/TPlier.o
 .group         0x00000000        0x8 ./Tiny/TPlier.o
 .group         0x00000000        0x8 ./Tiny/TPlier.o
 .group         0x00000000        0x8 ./Tiny/TPlier.o
 .group         0x00000000        0x8 ./Tiny/TPlier.o
 .debug_macro   0x00000000      0x7fc ./Tiny/TPlier.o
 .debug_macro   0x00000000       0x69 ./Tiny/TPlier.o
 .debug_macro   0x00000000       0x3b ./Tiny/TPlier.o
 .debug_macro   0x00000000       0x3a ./Tiny/TPlier.o
 .debug_macro   0x00000000       0x10 ./Tiny/TPlier.o
 .debug_macro   0x00000000       0x2e ./Tiny/TPlier.o
 .debug_macro   0x00000000       0xa2 ./Tiny/TPlier.o
 .debug_macro   0x00000000      0x20e ./Tiny/TPlier.o
 .debug_macro   0x00000000       0x18 ./Tiny/TPlier.o
 .debug_macro   0x00000000       0x42 ./Tiny/TPlier.o
 .debug_macro   0x00000000      0xd39 ./Tiny/TPlier.o
 .debug_macro   0x00000000     0x822c ./Tiny/TPlier.o
 .debug_macro   0x00000000      0x576 ./Tiny/TPlier.o
 .debug_macro   0x00000000       0x82 ./Tiny/TPlier.o
 .debug_macro   0x00000000       0x35 ./Tiny/TPlier.o
 .debug_macro   0x00000000       0x10 ./Tiny/TPlier.o
 .debug_macro   0x00000000       0x16 ./Tiny/TPlier.o
 .debug_macro   0x00000000       0x64 ./Tiny/TPlier.o
 .debug_macro   0x00000000       0xac ./Tiny/TPlier.o
 .debug_macro   0x00000000       0x7c ./Tiny/TPlier.o
 .group         0x00000000        0x8 ./QS/impl/QS_uart_stm32f4.o
 .group         0x00000000        0x8 ./QS/impl/QS_uart_stm32f4.o
 .group         0x00000000        0x8 ./QS/impl/QS_uart_stm32f4.o
 .group         0x00000000        0x8 ./QS/impl/QS_uart_stm32f4.o
 .group         0x00000000        0x8 ./QS/impl/QS_uart_stm32f4.o
 .group         0x00000000        0x8 ./QS/impl/QS_uart_stm32f4.o
 .group         0x00000000        0x8 ./QS/impl/QS_uart_stm32f4.o
 .group         0x00000000        0x8 ./QS/impl/QS_uart_stm32f4.o
 .group         0x00000000        0x8 ./QS/impl/QS_uart_stm32f4.o
 .group         0x00000000        0x8 ./QS/impl/QS_uart_stm32f4.o
 .group         0x00000000        0x8 ./QS/impl/QS_uart_stm32f4.o
 .group         0x00000000        0x8 ./QS/impl/QS_uart_stm32f4.o
 .group         0x00000000        0x8 ./QS/impl/QS_uart_stm32f4.o
 .group         0x00000000        0x8 ./QS/impl/QS_uart_stm32f4.o
 .group         0x00000000        0x8 ./QS/impl/QS_uart_stm32f4.o
 .group         0x00000000        0x8 ./QS/impl/QS_uart_stm32f4.o
 .group         0x00000000        0x8 ./QS/impl/QS_uart_stm32f4.o
 .group         0x00000000        0x8 ./QS/impl/QS_uart_stm32f4.o
 .group         0x00000000        0x8 ./QS/impl/QS_uart_stm32f4.o
 .group         0x00000000        0x8 ./QS/impl/QS_uart_stm32f4.o
 .group         0x00000000        0x8 ./QS/impl/QS_uart_stm32f4.o
 .group         0x00000000        0x8 ./QS/impl/QS_uart_stm32f4.o
 .debug_macro   0x00000000      0x7fc ./QS/impl/QS_uart_stm32f4.o
 .debug_macro   0x00000000       0x69 ./QS/impl/QS_uart_stm32f4.o
 .debug_macro   0x00000000       0x3b ./QS/impl/QS_uart_stm32f4.o
 .debug_macro   0x00000000       0x3a ./QS/impl/QS_uart_stm32f4.o
 .debug_macro   0x00000000       0x10 ./QS/impl/QS_uart_stm32f4.o
 .debug_macro   0x00000000       0x2e ./QS/impl/QS_uart_stm32f4.o
 .debug_macro   0x00000000       0xa2 ./QS/impl/QS_uart_stm32f4.o
 .debug_macro   0x00000000      0x20e ./QS/impl/QS_uart_stm32f4.o
 .debug_macro   0x00000000       0x18 ./QS/impl/QS_uart_stm32f4.o
 .debug_macro   0x00000000       0x42 ./QS/impl/QS_uart_stm32f4.o
 .debug_macro   0x00000000      0xd39 ./QS/impl/QS_uart_stm32f4.o
 .debug_macro   0x00000000     0x822c ./QS/impl/QS_uart_stm32f4.o
 .debug_macro   0x00000000      0x576 ./QS/impl/QS_uart_stm32f4.o
 .debug_macro   0x00000000       0x82 ./QS/impl/QS_uart_stm32f4.o
 .debug_macro   0x00000000       0x35 ./QS/impl/QS_uart_stm32f4.o
 .debug_macro   0x00000000       0x10 ./QS/impl/QS_uart_stm32f4.o
 .debug_macro   0x00000000       0x16 ./QS/impl/QS_uart_stm32f4.o
 .debug_macro   0x00000000       0x64 ./QS/impl/QS_uart_stm32f4.o
 .debug_macro   0x00000000       0xac ./QS/impl/QS_uart_stm32f4.o
 .debug_macro   0x00000000       0x7c ./QS/impl/QS_uart_stm32f4.o
 .group         0x00000000        0x8 ./QS/QS_CapteurCouleurCW.o
 .group         0x00000000        0x8 ./QS/QS_CapteurCouleurCW.o
 .group         0x00000000        0x8 ./QS/QS_CapteurCouleurCW.o
 .group         0x00000000        0x8 ./QS/QS_CapteurCouleurCW.o
 .group         0x00000000        0x8 ./QS/QS_CapteurCouleurCW.o
 .group         0x00000000        0x8 ./QS/QS_CapteurCouleurCW.o
 .group         0x00000000        0x8 ./QS/QS_CapteurCouleurCW.o
 .group         0x00000000        0x8 ./QS/QS_CapteurCouleurCW.o
 .group         0x00000000        0x8 ./QS/QS_CapteurCouleurCW.o
 .group         0x00000000        0x8 ./QS/QS_CapteurCouleurCW.o
 .group         0x00000000        0x8 ./QS/QS_CapteurCouleurCW.o
 .group         0x00000000        0x8 ./QS/QS_CapteurCouleurCW.o
 .group         0x00000000        0x8 ./QS/QS_CapteurCouleurCW.o
 .group         0x00000000        0x8 ./QS/QS_CapteurCouleurCW.o
 .group         0x00000000        0x8 ./QS/QS_CapteurCouleurCW.o
 .group         0x00000000        0x8 ./QS/QS_CapteurCouleurCW.o
 .group         0x00000000        0x8 ./QS/QS_CapteurCouleurCW.o
 .group         0x00000000        0x8 ./QS/QS_CapteurCouleurCW.o
 .group         0x00000000        0x8 ./QS/QS_CapteurCouleurCW.o
 .group         0x00000000        0x8 ./QS/QS_CapteurCouleurCW.o
 .group         0x00000000        0x8 ./QS/QS_CapteurCouleurCW.o
 .debug_macro   0x00000000      0x7fc ./QS/QS_CapteurCouleurCW.o
 .debug_macro   0x00000000       0x69 ./QS/QS_CapteurCouleurCW.o
 .debug_macro   0x00000000       0x3b ./QS/QS_CapteurCouleurCW.o
 .debug_macro   0x00000000       0x3a ./QS/QS_CapteurCouleurCW.o
 .debug_macro   0x00000000       0x10 ./QS/QS_CapteurCouleurCW.o
 .debug_macro   0x00000000       0x2e ./QS/QS_CapteurCouleurCW.o
 .debug_macro   0x00000000       0xa2 ./QS/QS_CapteurCouleurCW.o
 .debug_macro   0x00000000      0x20e ./QS/QS_CapteurCouleurCW.o
 .debug_macro   0x00000000       0x18 ./QS/QS_CapteurCouleurCW.o
 .debug_macro   0x00000000       0x42 ./QS/QS_CapteurCouleurCW.o
 .debug_macro   0x00000000      0xd39 ./QS/QS_CapteurCouleurCW.o
 .debug_macro   0x00000000     0x822c ./QS/QS_CapteurCouleurCW.o
 .debug_macro   0x00000000      0x576 ./QS/QS_CapteurCouleurCW.o
 .debug_macro   0x00000000       0x82 ./QS/QS_CapteurCouleurCW.o
 .debug_macro   0x00000000       0x35 ./QS/QS_CapteurCouleurCW.o
 .debug_macro   0x00000000       0x10 ./QS/QS_CapteurCouleurCW.o
 .debug_macro   0x00000000       0x16 ./QS/QS_CapteurCouleurCW.o
 .debug_macro   0x00000000       0x64 ./QS/QS_CapteurCouleurCW.o
 .debug_macro   0x00000000       0xac ./QS/QS_CapteurCouleurCW.o
 .debug_macro   0x00000000       0x7c ./QS/QS_CapteurCouleurCW.o
 .group         0x00000000        0x8 ./QS/QS_DCMotor2.o
 .group         0x00000000        0x8 ./QS/QS_DCMotor2.o
 .group         0x00000000        0x8 ./QS/QS_DCMotor2.o
 .group         0x00000000        0x8 ./QS/QS_DCMotor2.o
 .group         0x00000000        0x8 ./QS/QS_DCMotor2.o
 .group         0x00000000        0x8 ./QS/QS_DCMotor2.o
 .group         0x00000000        0x8 ./QS/QS_DCMotor2.o
 .group         0x00000000        0x8 ./QS/QS_DCMotor2.o
 .group         0x00000000        0x8 ./QS/QS_DCMotor2.o
 .group         0x00000000        0x8 ./QS/QS_DCMotor2.o
 .group         0x00000000        0x8 ./QS/QS_DCMotor2.o
 .group         0x00000000        0x8 ./QS/QS_DCMotor2.o
 .group         0x00000000        0x8 ./QS/QS_DCMotor2.o
 .group         0x00000000        0x8 ./QS/QS_DCMotor2.o
 .group         0x00000000        0x8 ./QS/QS_DCMotor2.o
 .group         0x00000000        0x8 ./QS/QS_DCMotor2.o
 .group         0x00000000        0x8 ./QS/QS_DCMotor2.o
 .group         0x00000000        0x8 ./QS/QS_DCMotor2.o
 .group         0x00000000        0x8 ./QS/QS_DCMotor2.o
 .group         0x00000000        0x8 ./QS/QS_DCMotor2.o
 .group         0x00000000        0x8 ./QS/QS_DCMotor2.o
 .group         0x00000000        0x8 ./QS/QS_DCMotor2.o
 .group         0x00000000        0x8 ./QS/QS_DCMotor2.o
 .group         0x00000000        0x8 ./QS/QS_DCMotor2.o
 .group         0x00000000        0x8 ./QS/QS_DCMotor2.o
 .group         0x00000000        0x8 ./QS/QS_DCMotor2.o
 .debug_macro   0x00000000      0x7fc ./QS/QS_DCMotor2.o
 .debug_macro   0x00000000       0x69 ./QS/QS_DCMotor2.o
 .debug_macro   0x00000000       0x3b ./QS/QS_DCMotor2.o
 .debug_macro   0x00000000       0x3a ./QS/QS_DCMotor2.o
 .debug_macro   0x00000000       0x10 ./QS/QS_DCMotor2.o
 .debug_macro   0x00000000       0x2e ./QS/QS_DCMotor2.o
 .debug_macro   0x00000000       0xa2 ./QS/QS_DCMotor2.o
 .debug_macro   0x00000000      0x20e ./QS/QS_DCMotor2.o
 .debug_macro   0x00000000       0x18 ./QS/QS_DCMotor2.o
 .debug_macro   0x00000000       0x42 ./QS/QS_DCMotor2.o
 .debug_macro   0x00000000      0xd39 ./QS/QS_DCMotor2.o
 .debug_macro   0x00000000     0x822c ./QS/QS_DCMotor2.o
 .debug_macro   0x00000000      0x576 ./QS/QS_DCMotor2.o
 .debug_macro   0x00000000       0x82 ./QS/QS_DCMotor2.o
 .debug_macro   0x00000000       0x35 ./QS/QS_DCMotor2.o
 .debug_macro   0x00000000       0x10 ./QS/QS_DCMotor2.o
 .debug_macro   0x00000000       0x16 ./QS/QS_DCMotor2.o
 .debug_macro   0x00000000       0x64 ./QS/QS_DCMotor2.o
 .debug_macro   0x00000000       0xac ./QS/QS_DCMotor2.o
 .debug_macro   0x00000000       0x7c ./QS/QS_DCMotor2.o
 .group         0x00000000        0x8 ./QS/QS_Step_motor.o
 .group         0x00000000        0x8 ./QS/QS_Step_motor.o
 .group         0x00000000        0x8 ./QS/QS_Step_motor.o
 .group         0x00000000        0x8 ./QS/QS_Step_motor.o
 .group         0x00000000        0x8 ./QS/QS_Step_motor.o
 .group         0x00000000        0x8 ./QS/QS_Step_motor.o
 .group         0x00000000        0x8 ./QS/QS_Step_motor.o
 .group         0x00000000        0x8 ./QS/QS_Step_motor.o
 .group         0x00000000        0x8 ./QS/QS_Step_motor.o
 .group         0x00000000        0x8 ./QS/QS_Step_motor.o
 .group         0x00000000        0x8 ./QS/QS_Step_motor.o
 .group         0x00000000        0x8 ./QS/QS_Step_motor.o
 .group         0x00000000        0x8 ./QS/QS_Step_motor.o
 .group         0x00000000        0x8 ./QS/QS_Step_motor.o
 .group         0x00000000        0x8 ./QS/QS_Step_motor.o
 .group         0x00000000        0x8 ./QS/QS_Step_motor.o
 .group         0x00000000        0x8 ./QS/QS_Step_motor.o
 .group         0x00000000        0x8 ./QS/QS_Step_motor.o
 .group         0x00000000        0x8 ./QS/QS_Step_motor.o
 .group         0x00000000        0x8 ./QS/QS_Step_motor.o
 .debug_macro   0x00000000      0x7fc ./QS/QS_Step_motor.o
 .debug_macro   0x00000000       0x69 ./QS/QS_Step_motor.o
 .debug_macro   0x00000000       0x3b ./QS/QS_Step_motor.o
 .debug_macro   0x00000000       0x3a ./QS/QS_Step_motor.o
 .debug_macro   0x00000000       0x10 ./QS/QS_Step_motor.o
 .debug_macro   0x00000000       0x2e ./QS/QS_Step_motor.o
 .debug_macro   0x00000000       0xa2 ./QS/QS_Step_motor.o
 .debug_macro   0x00000000      0x20e ./QS/QS_Step_motor.o
 .debug_macro   0x00000000       0x18 ./QS/QS_Step_motor.o
 .debug_macro   0x00000000       0x42 ./QS/QS_Step_motor.o
 .debug_macro   0x00000000      0xd39 ./QS/QS_Step_motor.o
 .debug_macro   0x00000000     0x822c ./QS/QS_Step_motor.o
 .debug_macro   0x00000000      0x576 ./QS/QS_Step_motor.o
 .debug_macro   0x00000000       0x82 ./QS/QS_Step_motor.o
 .debug_macro   0x00000000       0x35 ./QS/QS_Step_motor.o
 .debug_macro   0x00000000       0x10 ./QS/QS_Step_motor.o
 .debug_macro   0x00000000       0x16 ./QS/QS_Step_motor.o
 .debug_macro   0x00000000       0x64 ./QS/QS_Step_motor.o
 .debug_macro   0x00000000       0xac ./QS/QS_Step_motor.o
 .debug_macro   0x00000000       0x7c ./QS/QS_Step_motor.o
 .group         0x00000000        0x8 ./QS/QS_adc.o
 .group         0x00000000        0x8 ./QS/QS_adc.o
 .group         0x00000000        0x8 ./QS/QS_adc.o
 .group         0x00000000        0x8 ./QS/QS_adc.o
 .group         0x00000000        0x8 ./QS/QS_adc.o
 .group         0x00000000        0x8 ./QS/QS_adc.o
 .group         0x00000000        0x8 ./QS/QS_adc.o
 .group         0x00000000        0x8 ./QS/QS_adc.o
 .group         0x00000000        0x8 ./QS/QS_adc.o
 .group         0x00000000        0x8 ./QS/QS_adc.o
 .group         0x00000000        0x8 ./QS/QS_adc.o
 .group         0x00000000        0x8 ./QS/QS_adc.o
 .group         0x00000000        0x8 ./QS/QS_adc.o
 .group         0x00000000        0x8 ./QS/QS_adc.o
 .group         0x00000000        0x8 ./QS/QS_adc.o
 .group         0x00000000        0x8 ./QS/QS_adc.o
 .group         0x00000000        0x8 ./QS/QS_adc.o
 .group         0x00000000        0x8 ./QS/QS_adc.o
 .group         0x00000000        0x8 ./QS/QS_adc.o
 .group         0x00000000        0x8 ./QS/QS_adc.o
 .group         0x00000000        0x8 ./QS/QS_adc.o
 .group         0x00000000        0x8 ./QS/QS_adc.o
 .debug_macro   0x00000000      0x7fc ./QS/QS_adc.o
 .debug_macro   0x00000000       0x69 ./QS/QS_adc.o
 .debug_macro   0x00000000       0x3b ./QS/QS_adc.o
 .debug_macro   0x00000000       0x3a ./QS/QS_adc.o
 .debug_macro   0x00000000       0x10 ./QS/QS_adc.o
 .debug_macro   0x00000000       0x2e ./QS/QS_adc.o
 .debug_macro   0x00000000       0xa2 ./QS/QS_adc.o
 .debug_macro   0x00000000      0x20e ./QS/QS_adc.o
 .debug_macro   0x00000000       0x18 ./QS/QS_adc.o
 .debug_macro   0x00000000       0x42 ./QS/QS_adc.o
 .debug_macro   0x00000000      0xd39 ./QS/QS_adc.o
 .debug_macro   0x00000000     0x822c ./QS/QS_adc.o
 .debug_macro   0x00000000      0x576 ./QS/QS_adc.o
 .debug_macro   0x00000000       0x82 ./QS/QS_adc.o
 .debug_macro   0x00000000       0x35 ./QS/QS_adc.o
 .debug_macro   0x00000000       0x10 ./QS/QS_adc.o
 .debug_macro   0x00000000       0x16 ./QS/QS_adc.o
 .debug_macro   0x00000000       0x64 ./QS/QS_adc.o
 .debug_macro   0x00000000       0xac ./QS/QS_adc.o
 .debug_macro   0x00000000       0x7c ./QS/QS_adc.o
 .group         0x00000000        0x8 ./QS/QS_ax12.o
 .group         0x00000000        0x8 ./QS/QS_ax12.o
 .group         0x00000000        0x8 ./QS/QS_ax12.o
 .group         0x00000000        0x8 ./QS/QS_ax12.o
 .group         0x00000000        0x8 ./QS/QS_ax12.o
 .group         0x00000000        0x8 ./QS/QS_ax12.o
 .group         0x00000000        0x8 ./QS/QS_ax12.o
 .group         0x00000000        0x8 ./QS/QS_ax12.o
 .group         0x00000000        0x8 ./QS/QS_ax12.o
 .group         0x00000000        0x8 ./QS/QS_ax12.o
 .group         0x00000000        0x8 ./QS/QS_ax12.o
 .group         0x00000000        0x8 ./QS/QS_ax12.o
 .group         0x00000000        0x8 ./QS/QS_ax12.o
 .group         0x00000000        0x8 ./QS/QS_ax12.o
 .group         0x00000000        0x8 ./QS/QS_ax12.o
 .group         0x00000000        0x8 ./QS/QS_ax12.o
 .group         0x00000000        0x8 ./QS/QS_ax12.o
 .group         0x00000000        0x8 ./QS/QS_ax12.o
 .group         0x00000000        0x8 ./QS/QS_ax12.o
 .group         0x00000000        0x8 ./QS/QS_ax12.o
 .group         0x00000000        0x8 ./QS/QS_ax12.o
 .group         0x00000000        0x8 ./QS/QS_ax12.o
 .group         0x00000000        0x8 ./QS/QS_ax12.o
 .group         0x00000000        0x8 ./QS/QS_ax12.o
 .group         0x00000000        0x8 ./QS/QS_ax12.o
 .group         0x00000000        0x8 ./QS/QS_ax12.o
 .group         0x00000000        0x8 ./QS/QS_ax12.o
 .group         0x00000000        0x8 ./QS/QS_ax12.o
 .group         0x00000000        0x8 ./QS/QS_ax12.o
 .debug_macro   0x00000000      0x7fc ./QS/QS_ax12.o
 .debug_macro   0x00000000       0x69 ./QS/QS_ax12.o
 .debug_macro   0x00000000       0x3b ./QS/QS_ax12.o
 .debug_macro   0x00000000       0x3a ./QS/QS_ax12.o
 .debug_macro   0x00000000       0x10 ./QS/QS_ax12.o
 .debug_macro   0x00000000       0x2e ./QS/QS_ax12.o
 .debug_macro   0x00000000       0xa2 ./QS/QS_ax12.o
 .debug_macro   0x00000000      0x20e ./QS/QS_ax12.o
 .debug_macro   0x00000000       0x18 ./QS/QS_ax12.o
 .debug_macro   0x00000000       0x42 ./QS/QS_ax12.o
 .debug_macro   0x00000000      0xd39 ./QS/QS_ax12.o
 .debug_macro   0x00000000     0x822c ./QS/QS_ax12.o
 .debug_macro   0x00000000      0x576 ./QS/QS_ax12.o
 .debug_macro   0x00000000       0x82 ./QS/QS_ax12.o
 .debug_macro   0x00000000       0x35 ./QS/QS_ax12.o
 .debug_macro   0x00000000       0x10 ./QS/QS_ax12.o
 .debug_macro   0x00000000       0x16 ./QS/QS_ax12.o
 .debug_macro   0x00000000       0x64 ./QS/QS_ax12.o
 .debug_macro   0x00000000       0xac ./QS/QS_ax12.o
 .debug_macro   0x00000000       0x7c ./QS/QS_ax12.o
 .debug_macro   0x00000000       0x58 ./QS/QS_ax12.o
 .debug_macro   0x00000000      0x73b ./QS/QS_ax12.o
 .debug_macro   0x00000000       0x4c ./QS/QS_ax12.o
 .group         0x00000000        0x8 ./QS/QS_buffer_fifo.o
 .group         0x00000000        0x8 ./QS/QS_buffer_fifo.o
 .group         0x00000000        0x8 ./QS/QS_buffer_fifo.o
 .group         0x00000000        0x8 ./QS/QS_buffer_fifo.o
 .group         0x00000000        0x8 ./QS/QS_buffer_fifo.o
 .group         0x00000000        0x8 ./QS/QS_buffer_fifo.o
 .group         0x00000000        0x8 ./QS/QS_buffer_fifo.o
 .group         0x00000000        0x8 ./QS/QS_buffer_fifo.o
 .group         0x00000000        0x8 ./QS/QS_buffer_fifo.o
 .group         0x00000000        0x8 ./QS/QS_buffer_fifo.o
 .group         0x00000000        0x8 ./QS/QS_buffer_fifo.o
 .group         0x00000000        0x8 ./QS/QS_buffer_fifo.o
 .group         0x00000000        0x8 ./QS/QS_buffer_fifo.o
 .group         0x00000000        0x8 ./QS/QS_buffer_fifo.o
 .group         0x00000000        0x8 ./QS/QS_buffer_fifo.o
 .group         0x00000000        0x8 ./QS/QS_buffer_fifo.o
 .group         0x00000000        0x8 ./QS/QS_buffer_fifo.o
 .group         0x00000000        0x8 ./QS/QS_buffer_fifo.o
 .group         0x00000000        0x8 ./QS/QS_buffer_fifo.o
 .group         0x00000000        0x8 ./QS/QS_buffer_fifo.o
 .debug_macro   0x00000000      0x7fc ./QS/QS_buffer_fifo.o
 .debug_macro   0x00000000       0x69 ./QS/QS_buffer_fifo.o
 .debug_macro   0x00000000       0x3b ./QS/QS_buffer_fifo.o
 .debug_macro   0x00000000       0x3a ./QS/QS_buffer_fifo.o
 .debug_macro   0x00000000       0x10 ./QS/QS_buffer_fifo.o
 .debug_macro   0x00000000       0x2e ./QS/QS_buffer_fifo.o
 .debug_macro   0x00000000       0xa2 ./QS/QS_buffer_fifo.o
 .debug_macro   0x00000000      0x20e ./QS/QS_buffer_fifo.o
 .debug_macro   0x00000000       0x18 ./QS/QS_buffer_fifo.o
 .debug_macro   0x00000000       0x42 ./QS/QS_buffer_fifo.o
 .debug_macro   0x00000000      0xd39 ./QS/QS_buffer_fifo.o
 .debug_macro   0x00000000     0x822c ./QS/QS_buffer_fifo.o
 .debug_macro   0x00000000      0x576 ./QS/QS_buffer_fifo.o
 .debug_macro   0x00000000       0x82 ./QS/QS_buffer_fifo.o
 .debug_macro   0x00000000       0x35 ./QS/QS_buffer_fifo.o
 .debug_macro   0x00000000       0x10 ./QS/QS_buffer_fifo.o
 .debug_macro   0x00000000       0x16 ./QS/QS_buffer_fifo.o
 .debug_macro   0x00000000       0x64 ./QS/QS_buffer_fifo.o
 .debug_macro   0x00000000       0xac ./QS/QS_buffer_fifo.o
 .debug_macro   0x00000000       0x7c ./QS/QS_buffer_fifo.o
 .group         0x00000000        0x8 ./QS/QS_buttons.o
 .group         0x00000000        0x8 ./QS/QS_buttons.o
 .group         0x00000000        0x8 ./QS/QS_buttons.o
 .group         0x00000000        0x8 ./QS/QS_buttons.o
 .group         0x00000000        0x8 ./QS/QS_buttons.o
 .group         0x00000000        0x8 ./QS/QS_buttons.o
 .group         0x00000000        0x8 ./QS/QS_buttons.o
 .group         0x00000000        0x8 ./QS/QS_buttons.o
 .group         0x00000000        0x8 ./QS/QS_buttons.o
 .group         0x00000000        0x8 ./QS/QS_buttons.o
 .group         0x00000000        0x8 ./QS/QS_buttons.o
 .group         0x00000000        0x8 ./QS/QS_buttons.o
 .group         0x00000000        0x8 ./QS/QS_buttons.o
 .group         0x00000000        0x8 ./QS/QS_buttons.o
 .group         0x00000000        0x8 ./QS/QS_buttons.o
 .group         0x00000000        0x8 ./QS/QS_buttons.o
 .group         0x00000000        0x8 ./QS/QS_buttons.o
 .group         0x00000000        0x8 ./QS/QS_buttons.o
 .group         0x00000000        0x8 ./QS/QS_buttons.o
 .group         0x00000000        0x8 ./QS/QS_buttons.o
 .group         0x00000000        0x8 ./QS/QS_buttons.o
 .group         0x00000000        0x8 ./QS/QS_buttons.o
 .group         0x00000000        0x8 ./QS/QS_buttons.o
 .group         0x00000000        0x8 ./QS/QS_buttons.o
 .debug_macro   0x00000000      0x7fc ./QS/QS_buttons.o
 .debug_macro   0x00000000       0x69 ./QS/QS_buttons.o
 .debug_macro   0x00000000       0x3b ./QS/QS_buttons.o
 .debug_macro   0x00000000       0x3a ./QS/QS_buttons.o
 .debug_macro   0x00000000       0x10 ./QS/QS_buttons.o
 .debug_macro   0x00000000       0x2e ./QS/QS_buttons.o
 .debug_macro   0x00000000       0xa2 ./QS/QS_buttons.o
 .debug_macro   0x00000000      0x20e ./QS/QS_buttons.o
 .debug_macro   0x00000000       0x18 ./QS/QS_buttons.o
 .debug_macro   0x00000000       0x42 ./QS/QS_buttons.o
 .debug_macro   0x00000000      0xd39 ./QS/QS_buttons.o
 .debug_macro   0x00000000     0x822c ./QS/QS_buttons.o
 .debug_macro   0x00000000      0x576 ./QS/QS_buttons.o
 .debug_macro   0x00000000       0x82 ./QS/QS_buttons.o
 .debug_macro   0x00000000       0x35 ./QS/QS_buttons.o
 .debug_macro   0x00000000       0x10 ./QS/QS_buttons.o
 .debug_macro   0x00000000       0x16 ./QS/QS_buttons.o
 .debug_macro   0x00000000       0x64 ./QS/QS_buttons.o
 .debug_macro   0x00000000       0xac ./QS/QS_buttons.o
 .debug_macro   0x00000000       0x7c ./QS/QS_buttons.o
 .debug_macro   0x00000000      0x73b ./QS/QS_buttons.o
 .debug_macro   0x00000000       0x4c ./QS/QS_buttons.o
 .debug_macro   0x00000000       0x5e ./QS/QS_buttons.o
 .debug_macro   0x00000000       0xb8 ./QS/QS_buttons.o
 .group         0x00000000        0x8 ./QS/QS_can.o
 .group         0x00000000        0x8 ./QS/QS_can.o
 .group         0x00000000        0x8 ./QS/QS_can.o
 .group         0x00000000        0x8 ./QS/QS_can.o
 .group         0x00000000        0x8 ./QS/QS_can.o
 .group         0x00000000        0x8 ./QS/QS_can.o
 .group         0x00000000        0x8 ./QS/QS_can.o
 .group         0x00000000        0x8 ./QS/QS_can.o
 .group         0x00000000        0x8 ./QS/QS_can.o
 .group         0x00000000        0x8 ./QS/QS_can.o
 .group         0x00000000        0x8 ./QS/QS_can.o
 .group         0x00000000        0x8 ./QS/QS_can.o
 .group         0x00000000        0x8 ./QS/QS_can.o
 .group         0x00000000        0x8 ./QS/QS_can.o
 .group         0x00000000        0x8 ./QS/QS_can.o
 .group         0x00000000        0x8 ./QS/QS_can.o
 .group         0x00000000        0x8 ./QS/QS_can.o
 .group         0x00000000        0x8 ./QS/QS_can.o
 .group         0x00000000        0x8 ./QS/QS_can.o
 .group         0x00000000        0x8 ./QS/QS_can.o
 .group         0x00000000        0x8 ./QS/QS_can.o
 .group         0x00000000        0x8 ./QS/QS_can.o
 .group         0x00000000        0x8 ./QS/QS_can.o
 .group         0x00000000        0x8 ./QS/QS_can.o
 .group         0x00000000        0x8 ./QS/QS_can.o
 .debug_macro   0x00000000      0x7fc ./QS/QS_can.o
 .debug_macro   0x00000000       0x69 ./QS/QS_can.o
 .debug_macro   0x00000000       0x3b ./QS/QS_can.o
 .debug_macro   0x00000000       0x3a ./QS/QS_can.o
 .debug_macro   0x00000000       0x10 ./QS/QS_can.o
 .debug_macro   0x00000000       0x2e ./QS/QS_can.o
 .debug_macro   0x00000000       0xa2 ./QS/QS_can.o
 .debug_macro   0x00000000      0x20e ./QS/QS_can.o
 .debug_macro   0x00000000       0x18 ./QS/QS_can.o
 .debug_macro   0x00000000       0x42 ./QS/QS_can.o
 .debug_macro   0x00000000      0xd39 ./QS/QS_can.o
 .debug_macro   0x00000000     0x822c ./QS/QS_can.o
 .debug_macro   0x00000000      0x576 ./QS/QS_can.o
 .debug_macro   0x00000000       0x82 ./QS/QS_can.o
 .debug_macro   0x00000000       0x35 ./QS/QS_can.o
 .debug_macro   0x00000000       0x10 ./QS/QS_can.o
 .debug_macro   0x00000000       0x16 ./QS/QS_can.o
 .debug_macro   0x00000000       0x64 ./QS/QS_can.o
 .debug_macro   0x00000000       0xac ./QS/QS_can.o
 .debug_macro   0x00000000       0x7c ./QS/QS_can.o
 .debug_macro   0x00000000      0x460 ./QS/QS_can.o
 .debug_macro   0x00000000       0x58 ./QS/QS_can.o
 .debug_macro   0x00000000       0x5e ./QS/QS_can.o
 .debug_macro   0x00000000       0xb8 ./QS/QS_can.o
 .group         0x00000000        0x8 ./QS/QS_can_over_uart.o
 .group         0x00000000        0x8 ./QS/QS_can_over_uart.o
 .group         0x00000000        0x8 ./QS/QS_can_over_uart.o
 .group         0x00000000        0x8 ./QS/QS_can_over_uart.o
 .group         0x00000000        0x8 ./QS/QS_can_over_uart.o
 .group         0x00000000        0x8 ./QS/QS_can_over_uart.o
 .group         0x00000000        0x8 ./QS/QS_can_over_uart.o
 .group         0x00000000        0x8 ./QS/QS_can_over_uart.o
 .group         0x00000000        0x8 ./QS/QS_can_over_uart.o
 .group         0x00000000        0x8 ./QS/QS_can_over_uart.o
 .group         0x00000000        0x8 ./QS/QS_can_over_uart.o
 .group         0x00000000        0x8 ./QS/QS_can_over_uart.o
 .group         0x00000000        0x8 ./QS/QS_can_over_uart.o
 .group         0x00000000        0x8 ./QS/QS_can_over_uart.o
 .group         0x00000000        0x8 ./QS/QS_can_over_uart.o
 .group         0x00000000        0x8 ./QS/QS_can_over_uart.o
 .group         0x00000000        0x8 ./QS/QS_can_over_uart.o
 .group         0x00000000        0x8 ./QS/QS_can_over_uart.o
 .group         0x00000000        0x8 ./QS/QS_can_over_uart.o
 .group         0x00000000        0x8 ./QS/QS_can_over_uart.o
 .group         0x00000000        0x8 ./QS/QS_can_over_uart.o
 .group         0x00000000        0x8 ./QS/QS_can_over_uart.o
 .group         0x00000000        0x8 ./QS/QS_can_over_uart.o
 .group         0x00000000        0x8 ./QS/QS_can_over_uart.o
 .group         0x00000000        0x8 ./QS/QS_can_over_uart.o
 .group         0x00000000        0x8 ./QS/QS_can_over_uart.o
 .group         0x00000000        0x8 ./QS/QS_can_over_uart.o
 .group         0x00000000        0x8 ./QS/QS_can_over_uart.o
 .group         0x00000000        0x8 ./QS/QS_can_over_uart.o
 .group         0x00000000        0x8 ./QS/QS_can_over_uart.o
 .group         0x00000000        0x8 ./QS/QS_can_over_uart.o
 .group         0x00000000        0x8 ./QS/QS_can_over_uart.o
 .group         0x00000000        0x8 ./QS/QS_can_over_uart.o
 .group         0x00000000        0x8 ./QS/QS_can_over_uart.o
 .debug_macro   0x00000000      0x7fc ./QS/QS_can_over_uart.o
 .debug_macro   0x00000000       0x69 ./QS/QS_can_over_uart.o
 .debug_macro   0x00000000       0x3b ./QS/QS_can_over_uart.o
 .debug_macro   0x00000000       0x3a ./QS/QS_can_over_uart.o
 .debug_macro   0x00000000       0x10 ./QS/QS_can_over_uart.o
 .debug_macro   0x00000000       0x2e ./QS/QS_can_over_uart.o
 .debug_macro   0x00000000       0xa2 ./QS/QS_can_over_uart.o
 .debug_macro   0x00000000      0x20e ./QS/QS_can_over_uart.o
 .debug_macro   0x00000000       0x18 ./QS/QS_can_over_uart.o
 .debug_macro   0x00000000       0x42 ./QS/QS_can_over_uart.o
 .debug_macro   0x00000000      0xd39 ./QS/QS_can_over_uart.o
 .debug_macro   0x00000000     0x822c ./QS/QS_can_over_uart.o
 .debug_macro   0x00000000      0x576 ./QS/QS_can_over_uart.o
 .debug_macro   0x00000000       0x82 ./QS/QS_can_over_uart.o
 .debug_macro   0x00000000       0x35 ./QS/QS_can_over_uart.o
 .debug_macro   0x00000000       0x10 ./QS/QS_can_over_uart.o
 .debug_macro   0x00000000       0x16 ./QS/QS_can_over_uart.o
 .debug_macro   0x00000000       0x64 ./QS/QS_can_over_uart.o
 .debug_macro   0x00000000       0xac ./QS/QS_can_over_uart.o
 .debug_macro   0x00000000       0x7c ./QS/QS_can_over_uart.o
 .group         0x00000000        0x8 ./QS/QS_can_over_xbee.o
 .group         0x00000000        0x8 ./QS/QS_can_over_xbee.o
 .group         0x00000000        0x8 ./QS/QS_can_over_xbee.o
 .group         0x00000000        0x8 ./QS/QS_can_over_xbee.o
 .group         0x00000000        0x8 ./QS/QS_can_over_xbee.o
 .group         0x00000000        0x8 ./QS/QS_can_over_xbee.o
 .group         0x00000000        0x8 ./QS/QS_can_over_xbee.o
 .group         0x00000000        0x8 ./QS/QS_can_over_xbee.o
 .group         0x00000000        0x8 ./QS/QS_can_over_xbee.o
 .group         0x00000000        0x8 ./QS/QS_can_over_xbee.o
 .group         0x00000000        0x8 ./QS/QS_can_over_xbee.o
 .group         0x00000000        0x8 ./QS/QS_can_over_xbee.o
 .group         0x00000000        0x8 ./QS/QS_can_over_xbee.o
 .group         0x00000000        0x8 ./QS/QS_can_over_xbee.o
 .group         0x00000000        0x8 ./QS/QS_can_over_xbee.o
 .group         0x00000000        0x8 ./QS/QS_can_over_xbee.o
 .group         0x00000000        0x8 ./QS/QS_can_over_xbee.o
 .group         0x00000000        0x8 ./QS/QS_can_over_xbee.o
 .group         0x00000000        0x8 ./QS/QS_can_over_xbee.o
 .group         0x00000000        0x8 ./QS/QS_can_over_xbee.o
 .debug_macro   0x00000000      0x7fc ./QS/QS_can_over_xbee.o
 .debug_macro   0x00000000       0x69 ./QS/QS_can_over_xbee.o
 .debug_macro   0x00000000       0x3b ./QS/QS_can_over_xbee.o
 .debug_macro   0x00000000       0x3a ./QS/QS_can_over_xbee.o
 .debug_macro   0x00000000       0x10 ./QS/QS_can_over_xbee.o
 .debug_macro   0x00000000       0x2e ./QS/QS_can_over_xbee.o
 .debug_macro   0x00000000       0xa2 ./QS/QS_can_over_xbee.o
 .debug_macro   0x00000000      0x20e ./QS/QS_can_over_xbee.o
 .debug_macro   0x00000000       0x18 ./QS/QS_can_over_xbee.o
 .debug_macro   0x00000000       0x42 ./QS/QS_can_over_xbee.o
 .debug_macro   0x00000000      0xd39 ./QS/QS_can_over_xbee.o
 .debug_macro   0x00000000     0x822c ./QS/QS_can_over_xbee.o
 .debug_macro   0x00000000      0x576 ./QS/QS_can_over_xbee.o
 .debug_macro   0x00000000       0x82 ./QS/QS_can_over_xbee.o
 .debug_macro   0x00000000       0x35 ./QS/QS_can_over_xbee.o
 .debug_macro   0x00000000       0x10 ./QS/QS_can_over_xbee.o
 .debug_macro   0x00000000       0x16 ./QS/QS_can_over_xbee.o
 .debug_macro   0x00000000       0x64 ./QS/QS_can_over_xbee.o
 .debug_macro   0x00000000       0xac ./QS/QS_can_over_xbee.o
 .debug_macro   0x00000000       0x7c ./QS/QS_can_over_xbee.o
 .group         0x00000000        0x8 ./QS/QS_configCheck.o
 .group         0x00000000        0x8 ./QS/QS_configCheck.o
 .group         0x00000000        0x8 ./QS/QS_configCheck.o
 .group         0x00000000        0x8 ./QS/QS_configCheck.o
 .group         0x00000000        0x8 ./QS/QS_configCheck.o
 .group         0x00000000        0x8 ./QS/QS_configCheck.o
 .group         0x00000000        0x8 ./QS/QS_configCheck.o
 .group         0x00000000        0x8 ./QS/QS_configCheck.o
 .group         0x00000000        0x8 ./QS/QS_configCheck.o
 .group         0x00000000        0x8 ./QS/QS_configCheck.o
 .group         0x00000000        0x8 ./QS/QS_configCheck.o
 .group         0x00000000        0x8 ./QS/QS_configCheck.o
 .group         0x00000000        0x8 ./QS/QS_configCheck.o
 .group         0x00000000        0x8 ./QS/QS_configCheck.o
 .group         0x00000000        0x8 ./QS/QS_configCheck.o
 .group         0x00000000        0x8 ./QS/QS_configCheck.o
 .group         0x00000000        0x8 ./QS/QS_configCheck.o
 .group         0x00000000        0x8 ./QS/QS_configCheck.o
 .group         0x00000000        0x8 ./QS/QS_configCheck.o
 .group         0x00000000        0x8 ./QS/QS_configCheck.o
 .group         0x00000000        0x8 ./QS/QS_configCheck.o
 .group         0x00000000        0x8 ./QS/QS_configCheck.o
 .debug_macro   0x00000000      0x7fc ./QS/QS_configCheck.o
 .debug_macro   0x00000000       0x69 ./QS/QS_configCheck.o
 .debug_macro   0x00000000       0x3b ./QS/QS_configCheck.o
 .debug_macro   0x00000000       0x3a ./QS/QS_configCheck.o
 .debug_macro   0x00000000       0x10 ./QS/QS_configCheck.o
 .debug_macro   0x00000000       0x2e ./QS/QS_configCheck.o
 .debug_macro   0x00000000       0xa2 ./QS/QS_configCheck.o
 .debug_macro   0x00000000      0x20e ./QS/QS_configCheck.o
 .debug_macro   0x00000000       0x18 ./QS/QS_configCheck.o
 .debug_macro   0x00000000       0x42 ./QS/QS_configCheck.o
 .debug_macro   0x00000000      0xd39 ./QS/QS_configCheck.o
 .debug_macro   0x00000000     0x822c ./QS/QS_configCheck.o
 .debug_macro   0x00000000      0x576 ./QS/QS_configCheck.o
 .debug_macro   0x00000000       0x82 ./QS/QS_configCheck.o
 .debug_macro   0x00000000       0x35 ./QS/QS_configCheck.o
 .debug_macro   0x00000000       0x10 ./QS/QS_configCheck.o
 .debug_macro   0x00000000       0x16 ./QS/QS_configCheck.o
 .debug_macro   0x00000000       0x64 ./QS/QS_configCheck.o
 .debug_macro   0x00000000       0xac ./QS/QS_configCheck.o
 .debug_macro   0x00000000       0x7c ./QS/QS_configCheck.o
 .debug_macro   0x00000000       0x5e ./QS/QS_configCheck.o
 .debug_macro   0x00000000       0xb8 ./QS/QS_configCheck.o
 .group         0x00000000        0x8 ./QS/QS_external_it.o
 .group         0x00000000        0x8 ./QS/QS_external_it.o
 .group         0x00000000        0x8 ./QS/QS_external_it.o
 .group         0x00000000        0x8 ./QS/QS_external_it.o
 .group         0x00000000        0x8 ./QS/QS_external_it.o
 .group         0x00000000        0x8 ./QS/QS_external_it.o
 .group         0x00000000        0x8 ./QS/QS_external_it.o
 .group         0x00000000        0x8 ./QS/QS_external_it.o
 .group         0x00000000        0x8 ./QS/QS_external_it.o
 .group         0x00000000        0x8 ./QS/QS_external_it.o
 .group         0x00000000        0x8 ./QS/QS_external_it.o
 .group         0x00000000        0x8 ./QS/QS_external_it.o
 .group         0x00000000        0x8 ./QS/QS_external_it.o
 .group         0x00000000        0x8 ./QS/QS_external_it.o
 .group         0x00000000        0x8 ./QS/QS_external_it.o
 .group         0x00000000        0x8 ./QS/QS_external_it.o
 .group         0x00000000        0x8 ./QS/QS_external_it.o
 .group         0x00000000        0x8 ./QS/QS_external_it.o
 .group         0x00000000        0x8 ./QS/QS_external_it.o
 .group         0x00000000        0x8 ./QS/QS_external_it.o
 .group         0x00000000        0x8 ./QS/QS_external_it.o
 .group         0x00000000        0x8 ./QS/QS_external_it.o
 .debug_macro   0x00000000      0x7fc ./QS/QS_external_it.o
 .debug_macro   0x00000000       0x69 ./QS/QS_external_it.o
 .debug_macro   0x00000000       0x3b ./QS/QS_external_it.o
 .debug_macro   0x00000000       0x3a ./QS/QS_external_it.o
 .debug_macro   0x00000000       0x10 ./QS/QS_external_it.o
 .debug_macro   0x00000000       0x2e ./QS/QS_external_it.o
 .debug_macro   0x00000000       0xa2 ./QS/QS_external_it.o
 .debug_macro   0x00000000      0x20e ./QS/QS_external_it.o
 .debug_macro   0x00000000       0x18 ./QS/QS_external_it.o
 .debug_macro   0x00000000       0x42 ./QS/QS_external_it.o
 .debug_macro   0x00000000      0xd39 ./QS/QS_external_it.o
 .debug_macro   0x00000000     0x822c ./QS/QS_external_it.o
 .debug_macro   0x00000000      0x576 ./QS/QS_external_it.o
 .debug_macro   0x00000000       0x82 ./QS/QS_external_it.o
 .debug_macro   0x00000000       0x35 ./QS/QS_external_it.o
 .debug_macro   0x00000000       0x10 ./QS/QS_external_it.o
 .debug_macro   0x00000000       0x16 ./QS/QS_external_it.o
 .debug_macro   0x00000000       0x64 ./QS/QS_external_it.o
 .debug_macro   0x00000000       0xac ./QS/QS_external_it.o
 .debug_macro   0x00000000       0x7c ./QS/QS_external_it.o
 .group         0x00000000        0x8 ./QS/QS_global_vars.o
 .group         0x00000000        0x8 ./QS/QS_global_vars.o
 .group         0x00000000        0x8 ./QS/QS_global_vars.o
 .group         0x00000000        0x8 ./QS/QS_global_vars.o
 .group         0x00000000        0x8 ./QS/QS_global_vars.o
 .group         0x00000000        0x8 ./QS/QS_global_vars.o
 .group         0x00000000        0x8 ./QS/QS_global_vars.o
 .group         0x00000000        0x8 ./QS/QS_global_vars.o
 .group         0x00000000        0x8 ./QS/QS_global_vars.o
 .group         0x00000000        0x8 ./QS/QS_global_vars.o
 .group         0x00000000        0x8 ./QS/QS_global_vars.o
 .group         0x00000000        0x8 ./QS/QS_global_vars.o
 .group         0x00000000        0x8 ./QS/QS_global_vars.o
 .group         0x00000000        0x8 ./QS/QS_global_vars.o
 .group         0x00000000        0x8 ./QS/QS_global_vars.o
 .group         0x00000000        0x8 ./QS/QS_global_vars.o
 .group         0x00000000        0x8 ./QS/QS_global_vars.o
 .group         0x00000000        0x8 ./QS/QS_global_vars.o
 .group         0x00000000        0x8 ./QS/QS_global_vars.o
 .group         0x00000000        0x8 ./QS/QS_global_vars.o
 .debug_macro   0x00000000      0x7fc ./QS/QS_global_vars.o
 .debug_macro   0x00000000       0x69 ./QS/QS_global_vars.o
 .debug_macro   0x00000000       0x3b ./QS/QS_global_vars.o
 .debug_macro   0x00000000       0x3a ./QS/QS_global_vars.o
 .debug_macro   0x00000000       0x10 ./QS/QS_global_vars.o
 .debug_macro   0x00000000       0x2e ./QS/QS_global_vars.o
 .debug_macro   0x00000000       0xa2 ./QS/QS_global_vars.o
 .debug_macro   0x00000000      0x20e ./QS/QS_global_vars.o
 .debug_macro   0x00000000       0x18 ./QS/QS_global_vars.o
 .debug_macro   0x00000000       0x42 ./QS/QS_global_vars.o
 .debug_macro   0x00000000      0xd39 ./QS/QS_global_vars.o
 .debug_macro   0x00000000     0x822c ./QS/QS_global_vars.o
 .debug_macro   0x00000000      0x576 ./QS/QS_global_vars.o
 .debug_macro   0x00000000       0x82 ./QS/QS_global_vars.o
 .debug_macro   0x00000000       0x35 ./QS/QS_global_vars.o
 .debug_macro   0x00000000       0x10 ./QS/QS_global_vars.o
 .debug_macro   0x00000000       0x16 ./QS/QS_global_vars.o
 .debug_macro   0x00000000       0x64 ./QS/QS_global_vars.o
 .debug_macro   0x00000000       0xac ./QS/QS_global_vars.o
 .debug_macro   0x00000000       0x7c ./QS/QS_global_vars.o
 .group         0x00000000        0x8 ./QS/QS_i2c.o
 .group         0x00000000        0x8 ./QS/QS_i2c.o
 .group         0x00000000        0x8 ./QS/QS_i2c.o
 .group         0x00000000        0x8 ./QS/QS_i2c.o
 .group         0x00000000        0x8 ./QS/QS_i2c.o
 .group         0x00000000        0x8 ./QS/QS_i2c.o
 .group         0x00000000        0x8 ./QS/QS_i2c.o
 .group         0x00000000        0x8 ./QS/QS_i2c.o
 .group         0x00000000        0x8 ./QS/QS_i2c.o
 .group         0x00000000        0x8 ./QS/QS_i2c.o
 .group         0x00000000        0x8 ./QS/QS_i2c.o
 .group         0x00000000        0x8 ./QS/QS_i2c.o
 .group         0x00000000        0x8 ./QS/QS_i2c.o
 .group         0x00000000        0x8 ./QS/QS_i2c.o
 .group         0x00000000        0x8 ./QS/QS_i2c.o
 .group         0x00000000        0x8 ./QS/QS_i2c.o
 .group         0x00000000        0x8 ./QS/QS_i2c.o
 .group         0x00000000        0x8 ./QS/QS_i2c.o
 .group         0x00000000        0x8 ./QS/QS_i2c.o
 .group         0x00000000        0x8 ./QS/QS_i2c.o
 .group         0x00000000        0x8 ./QS/QS_i2c.o
 .group         0x00000000        0x8 ./QS/QS_i2c.o
 .group         0x00000000        0x8 ./QS/QS_i2c.o
 .debug_macro   0x00000000      0x7fc ./QS/QS_i2c.o
 .debug_macro   0x00000000       0x69 ./QS/QS_i2c.o
 .debug_macro   0x00000000       0x3b ./QS/QS_i2c.o
 .debug_macro   0x00000000       0x3a ./QS/QS_i2c.o
 .debug_macro   0x00000000       0x10 ./QS/QS_i2c.o
 .debug_macro   0x00000000       0x2e ./QS/QS_i2c.o
 .debug_macro   0x00000000       0xa2 ./QS/QS_i2c.o
 .debug_macro   0x00000000      0x20e ./QS/QS_i2c.o
 .debug_macro   0x00000000       0x18 ./QS/QS_i2c.o
 .debug_macro   0x00000000       0x42 ./QS/QS_i2c.o
 .debug_macro   0x00000000      0xd39 ./QS/QS_i2c.o
 .debug_macro   0x00000000     0x822c ./QS/QS_i2c.o
 .debug_macro   0x00000000      0x576 ./QS/QS_i2c.o
 .debug_macro   0x00000000       0x82 ./QS/QS_i2c.o
 .debug_macro   0x00000000       0x35 ./QS/QS_i2c.o
 .debug_macro   0x00000000       0x10 ./QS/QS_i2c.o
 .debug_macro   0x00000000       0x16 ./QS/QS_i2c.o
 .debug_macro   0x00000000       0x64 ./QS/QS_i2c.o
 .debug_macro   0x00000000       0xac ./QS/QS_i2c.o
 .debug_macro   0x00000000       0x7c ./QS/QS_i2c.o
 .debug_macro   0x00000000       0x58 ./QS/QS_i2c.o
 .group         0x00000000        0x8 ./QS/QS_outputlog.o
 .group         0x00000000        0x8 ./QS/QS_outputlog.o
 .group         0x00000000        0x8 ./QS/QS_outputlog.o
 .group         0x00000000        0x8 ./QS/QS_outputlog.o
 .group         0x00000000        0x8 ./QS/QS_outputlog.o
 .group         0x00000000        0x8 ./QS/QS_outputlog.o
 .group         0x00000000        0x8 ./QS/QS_outputlog.o
 .group         0x00000000        0x8 ./QS/QS_outputlog.o
 .group         0x00000000        0x8 ./QS/QS_outputlog.o
 .group         0x00000000        0x8 ./QS/QS_outputlog.o
 .group         0x00000000        0x8 ./QS/QS_outputlog.o
 .group         0x00000000        0x8 ./QS/QS_outputlog.o
 .group         0x00000000        0x8 ./QS/QS_outputlog.o
 .group         0x00000000        0x8 ./QS/QS_outputlog.o
 .group         0x00000000        0x8 ./QS/QS_outputlog.o
 .group         0x00000000        0x8 ./QS/QS_outputlog.o
 .group         0x00000000        0x8 ./QS/QS_outputlog.o
 .group         0x00000000        0x8 ./QS/QS_outputlog.o
 .group         0x00000000        0x8 ./QS/QS_outputlog.o
 .group         0x00000000        0x8 ./QS/QS_outputlog.o
 .group         0x00000000        0x8 ./QS/QS_outputlog.o
 .group         0x00000000        0x8 ./QS/QS_outputlog.o
 .group         0x00000000        0x8 ./QS/QS_outputlog.o
 .group         0x00000000        0x8 ./QS/QS_outputlog.o
 .group         0x00000000        0x8 ./QS/QS_outputlog.o
 .group         0x00000000        0x8 ./QS/QS_outputlog.o
 .group         0x00000000        0x8 ./QS/QS_outputlog.o
 .group         0x00000000        0x8 ./QS/QS_outputlog.o
 .group         0x00000000        0x8 ./QS/QS_outputlog.o
 .group         0x00000000        0x8 ./QS/QS_outputlog.o
 .group         0x00000000        0x8 ./QS/QS_outputlog.o
 .group         0x00000000        0x8 ./QS/QS_outputlog.o
 .group         0x00000000        0x8 ./QS/QS_outputlog.o
 .group         0x00000000        0x8 ./QS/QS_outputlog.o
 .group         0x00000000        0x8 ./QS/QS_outputlog.o
 .group         0x00000000        0x8 ./QS/QS_outputlog.o
 .debug_macro   0x00000000      0x7fc ./QS/QS_outputlog.o
 .debug_macro   0x00000000       0x69 ./QS/QS_outputlog.o
 .debug_macro   0x00000000       0x3b ./QS/QS_outputlog.o
 .debug_macro   0x00000000       0x3a ./QS/QS_outputlog.o
 .debug_macro   0x00000000       0x10 ./QS/QS_outputlog.o
 .debug_macro   0x00000000       0x2e ./QS/QS_outputlog.o
 .debug_macro   0x00000000       0xa2 ./QS/QS_outputlog.o
 .debug_macro   0x00000000      0x20e ./QS/QS_outputlog.o
 .debug_macro   0x00000000       0x18 ./QS/QS_outputlog.o
 .debug_macro   0x00000000       0x42 ./QS/QS_outputlog.o
 .debug_macro   0x00000000      0xd39 ./QS/QS_outputlog.o
 .debug_macro   0x00000000     0x822c ./QS/QS_outputlog.o
 .debug_macro   0x00000000      0x576 ./QS/QS_outputlog.o
 .debug_macro   0x00000000       0x82 ./QS/QS_outputlog.o
 .debug_macro   0x00000000       0x35 ./QS/QS_outputlog.o
 .debug_macro   0x00000000       0x10 ./QS/QS_outputlog.o
 .debug_macro   0x00000000       0x16 ./QS/QS_outputlog.o
 .debug_macro   0x00000000       0x64 ./QS/QS_outputlog.o
 .debug_macro   0x00000000       0xac ./QS/QS_outputlog.o
 .debug_macro   0x00000000       0x7c ./QS/QS_outputlog.o
 .debug_macro   0x00000000       0x10 ./QS/QS_outputlog.o
 .debug_macro   0x00000000       0x89 ./QS/QS_outputlog.o
 .debug_macro   0x00000000       0x10 ./QS/QS_outputlog.o
 .debug_macro   0x00000000       0x3a ./QS/QS_outputlog.o
 .debug_macro   0x00000000       0x52 ./QS/QS_outputlog.o
 .debug_macro   0x00000000       0x19 ./QS/QS_outputlog.o
 .debug_macro   0x00000000      0x16d ./QS/QS_outputlog.o
 .debug_macro   0x00000000       0x10 ./QS/QS_outputlog.o
 .debug_macro   0x00000000       0xf5 ./QS/QS_outputlog.o
 .debug_macro   0x00000000       0x22 ./QS/QS_outputlog.o
 .debug_macro   0x00000000       0x91 ./QS/QS_outputlog.o
 .debug_macro   0x00000000       0x16 ./QS/QS_outputlog.o
 .debug_macro   0x00000000      0x16d ./QS/QS_outputlog.o
 .group         0x00000000        0x8 ./QS/QS_ports.o
 .group         0x00000000        0x8 ./QS/QS_ports.o
 .group         0x00000000        0x8 ./QS/QS_ports.o
 .group         0x00000000        0x8 ./QS/QS_ports.o
 .group         0x00000000        0x8 ./QS/QS_ports.o
 .group         0x00000000        0x8 ./QS/QS_ports.o
 .group         0x00000000        0x8 ./QS/QS_ports.o
 .group         0x00000000        0x8 ./QS/QS_ports.o
 .group         0x00000000        0x8 ./QS/QS_ports.o
 .group         0x00000000        0x8 ./QS/QS_ports.o
 .group         0x00000000        0x8 ./QS/QS_ports.o
 .group         0x00000000        0x8 ./QS/QS_ports.o
 .group         0x00000000        0x8 ./QS/QS_ports.o
 .group         0x00000000        0x8 ./QS/QS_ports.o
 .group         0x00000000        0x8 ./QS/QS_ports.o
 .group         0x00000000        0x8 ./QS/QS_ports.o
 .group         0x00000000        0x8 ./QS/QS_ports.o
 .group         0x00000000        0x8 ./QS/QS_ports.o
 .group         0x00000000        0x8 ./QS/QS_ports.o
 .group         0x00000000        0x8 ./QS/QS_ports.o
 .group         0x00000000        0x8 ./QS/QS_ports.o
 .group         0x00000000        0x8 ./QS/QS_ports.o
 .group         0x00000000        0x8 ./QS/QS_ports.o
 .group         0x00000000        0x8 ./QS/QS_ports.o
 .debug_macro   0x00000000      0x7fc ./QS/QS_ports.o
 .debug_macro   0x00000000       0x69 ./QS/QS_ports.o
 .debug_macro   0x00000000       0x3b ./QS/QS_ports.o
 .debug_macro   0x00000000       0x3a ./QS/QS_ports.o
 .debug_macro   0x00000000       0x10 ./QS/QS_ports.o
 .debug_macro   0x00000000       0x2e ./QS/QS_ports.o
 .debug_macro   0x00000000       0xa2 ./QS/QS_ports.o
 .debug_macro   0x00000000      0x20e ./QS/QS_ports.o
 .debug_macro   0x00000000       0x18 ./QS/QS_ports.o
 .debug_macro   0x00000000       0x42 ./QS/QS_ports.o
 .debug_macro   0x00000000      0xd39 ./QS/QS_ports.o
 .debug_macro   0x00000000     0x822c ./QS/QS_ports.o
 .debug_macro   0x00000000      0x576 ./QS/QS_ports.o
 .debug_macro   0x00000000       0x82 ./QS/QS_ports.o
 .debug_macro   0x00000000       0x35 ./QS/QS_ports.o
 .debug_macro   0x00000000       0x10 ./QS/QS_ports.o
 .debug_macro   0x00000000       0x16 ./QS/QS_ports.o
 .debug_macro   0x00000000       0x64 ./QS/QS_ports.o
 .debug_macro   0x00000000       0xac ./QS/QS_ports.o
 .debug_macro   0x00000000       0x7c ./QS/QS_ports.o
 .debug_macro   0x00000000      0x455 ./QS/QS_ports.o
 .debug_macro   0x00000000       0x5e ./QS/QS_ports.o
 .debug_macro   0x00000000       0xb8 ./QS/QS_ports.o
 .group         0x00000000        0x8 ./QS/QS_pwm.o
 .group         0x00000000        0x8 ./QS/QS_pwm.o
 .group         0x00000000        0x8 ./QS/QS_pwm.o
 .group         0x00000000        0x8 ./QS/QS_pwm.o
 .group         0x00000000        0x8 ./QS/QS_pwm.o
 .group         0x00000000        0x8 ./QS/QS_pwm.o
 .group         0x00000000        0x8 ./QS/QS_pwm.o
 .group         0x00000000        0x8 ./QS/QS_pwm.o
 .group         0x00000000        0x8 ./QS/QS_pwm.o
 .group         0x00000000        0x8 ./QS/QS_pwm.o
 .group         0x00000000        0x8 ./QS/QS_pwm.o
 .group         0x00000000        0x8 ./QS/QS_pwm.o
 .group         0x00000000        0x8 ./QS/QS_pwm.o
 .group         0x00000000        0x8 ./QS/QS_pwm.o
 .group         0x00000000        0x8 ./QS/QS_pwm.o
 .group         0x00000000        0x8 ./QS/QS_pwm.o
 .group         0x00000000        0x8 ./QS/QS_pwm.o
 .group         0x00000000        0x8 ./QS/QS_pwm.o
 .group         0x00000000        0x8 ./QS/QS_pwm.o
 .group         0x00000000        0x8 ./QS/QS_pwm.o
 .group         0x00000000        0x8 ./QS/QS_pwm.o
 .group         0x00000000        0x8 ./QS/QS_pwm.o
 .group         0x00000000        0x8 ./QS/QS_pwm.o
 .debug_macro   0x00000000      0x7fc ./QS/QS_pwm.o
 .debug_macro   0x00000000       0x69 ./QS/QS_pwm.o
 .debug_macro   0x00000000       0x3b ./QS/QS_pwm.o
 .debug_macro   0x00000000       0x3a ./QS/QS_pwm.o
 .debug_macro   0x00000000       0x10 ./QS/QS_pwm.o
 .debug_macro   0x00000000       0x2e ./QS/QS_pwm.o
 .debug_macro   0x00000000       0xa2 ./QS/QS_pwm.o
 .debug_macro   0x00000000      0x20e ./QS/QS_pwm.o
 .debug_macro   0x00000000       0x18 ./QS/QS_pwm.o
 .debug_macro   0x00000000       0x42 ./QS/QS_pwm.o
 .debug_macro   0x00000000      0xd39 ./QS/QS_pwm.o
 .debug_macro   0x00000000     0x822c ./QS/QS_pwm.o
 .debug_macro   0x00000000      0x576 ./QS/QS_pwm.o
 .debug_macro   0x00000000       0x82 ./QS/QS_pwm.o
 .debug_macro   0x00000000       0x35 ./QS/QS_pwm.o
 .debug_macro   0x00000000       0x10 ./QS/QS_pwm.o
 .debug_macro   0x00000000       0x16 ./QS/QS_pwm.o
 .debug_macro   0x00000000       0x64 ./QS/QS_pwm.o
 .debug_macro   0x00000000       0xac ./QS/QS_pwm.o
 .debug_macro   0x00000000       0x7c ./QS/QS_pwm.o
 .debug_macro   0x00000000       0x34 ./QS/QS_pwm.o
 .debug_macro   0x00000000       0x16 ./QS/QS_pwm.o
 .debug_macro   0x00000000      0x73b ./QS/QS_pwm.o
 .group         0x00000000        0x8 ./QS/QS_qei.o
 .group         0x00000000        0x8 ./QS/QS_qei.o
 .group         0x00000000        0x8 ./QS/QS_qei.o
 .group         0x00000000        0x8 ./QS/QS_qei.o
 .group         0x00000000        0x8 ./QS/QS_qei.o
 .group         0x00000000        0x8 ./QS/QS_qei.o
 .group         0x00000000        0x8 ./QS/QS_qei.o
 .group         0x00000000        0x8 ./QS/QS_qei.o
 .group         0x00000000        0x8 ./QS/QS_qei.o
 .group         0x00000000        0x8 ./QS/QS_qei.o
 .group         0x00000000        0x8 ./QS/QS_qei.o
 .group         0x00000000        0x8 ./QS/QS_qei.o
 .group         0x00000000        0x8 ./QS/QS_qei.o
 .group         0x00000000        0x8 ./QS/QS_qei.o
 .group         0x00000000        0x8 ./QS/QS_qei.o
 .group         0x00000000        0x8 ./QS/QS_qei.o
 .group         0x00000000        0x8 ./QS/QS_qei.o
 .group         0x00000000        0x8 ./QS/QS_qei.o
 .group         0x00000000        0x8 ./QS/QS_qei.o
 .group         0x00000000        0x8 ./QS/QS_qei.o
 .group         0x00000000        0x8 ./QS/QS_qei.o
 .group         0x00000000        0x8 ./QS/QS_qei.o
 .debug_macro   0x00000000      0x7fc ./QS/QS_qei.o
 .debug_macro   0x00000000       0x69 ./QS/QS_qei.o
 .debug_macro   0x00000000       0x3b ./QS/QS_qei.o
 .debug_macro   0x00000000       0x3a ./QS/QS_qei.o
 .debug_macro   0x00000000       0x10 ./QS/QS_qei.o
 .debug_macro   0x00000000       0x2e ./QS/QS_qei.o
 .debug_macro   0x00000000       0xa2 ./QS/QS_qei.o
 .debug_macro   0x00000000      0x20e ./QS/QS_qei.o
 .debug_macro   0x00000000       0x18 ./QS/QS_qei.o
 .debug_macro   0x00000000       0x42 ./QS/QS_qei.o
 .debug_macro   0x00000000      0xd39 ./QS/QS_qei.o
 .debug_macro   0x00000000     0x822c ./QS/QS_qei.o
 .debug_macro   0x00000000      0x576 ./QS/QS_qei.o
 .debug_macro   0x00000000       0x82 ./QS/QS_qei.o
 .debug_macro   0x00000000       0x35 ./QS/QS_qei.o
 .debug_macro   0x00000000       0x10 ./QS/QS_qei.o
 .debug_macro   0x00000000       0x16 ./QS/QS_qei.o
 .debug_macro   0x00000000       0x64 ./QS/QS_qei.o
 .debug_macro   0x00000000       0xac ./QS/QS_qei.o
 .debug_macro   0x00000000       0x7c ./QS/QS_qei.o
 .debug_macro   0x00000000      0x73b ./QS/QS_qei.o
 .group         0x00000000        0x8 ./QS/QS_rf.o
 .group         0x00000000        0x8 ./QS/QS_rf.o
 .group         0x00000000        0x8 ./QS/QS_rf.o
 .group         0x00000000        0x8 ./QS/QS_rf.o
 .group         0x00000000        0x8 ./QS/QS_rf.o
 .group         0x00000000        0x8 ./QS/QS_rf.o
 .group         0x00000000        0x8 ./QS/QS_rf.o
 .group         0x00000000        0x8 ./QS/QS_rf.o
 .group         0x00000000        0x8 ./QS/QS_rf.o
 .group         0x00000000        0x8 ./QS/QS_rf.o
 .group         0x00000000        0x8 ./QS/QS_rf.o
 .group         0x00000000        0x8 ./QS/QS_rf.o
 .group         0x00000000        0x8 ./QS/QS_rf.o
 .group         0x00000000        0x8 ./QS/QS_rf.o
 .group         0x00000000        0x8 ./QS/QS_rf.o
 .group         0x00000000        0x8 ./QS/QS_rf.o
 .group         0x00000000        0x8 ./QS/QS_rf.o
 .group         0x00000000        0x8 ./QS/QS_rf.o
 .group         0x00000000        0x8 ./QS/QS_rf.o
 .group         0x00000000        0x8 ./QS/QS_rf.o
 .debug_macro   0x00000000      0x7fc ./QS/QS_rf.o
 .debug_macro   0x00000000       0x69 ./QS/QS_rf.o
 .debug_macro   0x00000000       0x3b ./QS/QS_rf.o
 .debug_macro   0x00000000       0x3a ./QS/QS_rf.o
 .debug_macro   0x00000000       0x10 ./QS/QS_rf.o
 .debug_macro   0x00000000       0x2e ./QS/QS_rf.o
 .debug_macro   0x00000000       0xa2 ./QS/QS_rf.o
 .debug_macro   0x00000000      0x20e ./QS/QS_rf.o
 .debug_macro   0x00000000       0x18 ./QS/QS_rf.o
 .debug_macro   0x00000000       0x42 ./QS/QS_rf.o
 .debug_macro   0x00000000      0xd39 ./QS/QS_rf.o
 .debug_macro   0x00000000     0x822c ./QS/QS_rf.o
 .debug_macro   0x00000000      0x576 ./QS/QS_rf.o
 .debug_macro   0x00000000       0x82 ./QS/QS_rf.o
 .debug_macro   0x00000000       0x35 ./QS/QS_rf.o
 .debug_macro   0x00000000       0x10 ./QS/QS_rf.o
 .debug_macro   0x00000000       0x16 ./QS/QS_rf.o
 .debug_macro   0x00000000       0x64 ./QS/QS_rf.o
 .debug_macro   0x00000000       0xac ./QS/QS_rf.o
 .debug_macro   0x00000000       0x7c ./QS/QS_rf.o
 .group         0x00000000        0x8 ./QS/QS_servo.o
 .group         0x00000000        0x8 ./QS/QS_servo.o
 .group         0x00000000        0x8 ./QS/QS_servo.o
 .group         0x00000000        0x8 ./QS/QS_servo.o
 .group         0x00000000        0x8 ./QS/QS_servo.o
 .group         0x00000000        0x8 ./QS/QS_servo.o
 .group         0x00000000        0x8 ./QS/QS_servo.o
 .group         0x00000000        0x8 ./QS/QS_servo.o
 .group         0x00000000        0x8 ./QS/QS_servo.o
 .group         0x00000000        0x8 ./QS/QS_servo.o
 .group         0x00000000        0x8 ./QS/QS_servo.o
 .group         0x00000000        0x8 ./QS/QS_servo.o
 .group         0x00000000        0x8 ./QS/QS_servo.o
 .group         0x00000000        0x8 ./QS/QS_servo.o
 .group         0x00000000        0x8 ./QS/QS_servo.o
 .group         0x00000000        0x8 ./QS/QS_servo.o
 .group         0x00000000        0x8 ./QS/QS_servo.o
 .group         0x00000000        0x8 ./QS/QS_servo.o
 .group         0x00000000        0x8 ./QS/QS_servo.o
 .group         0x00000000        0x8 ./QS/QS_servo.o
 .debug_macro   0x00000000      0x7fc ./QS/QS_servo.o
 .debug_macro   0x00000000       0x69 ./QS/QS_servo.o
 .debug_macro   0x00000000       0x3b ./QS/QS_servo.o
 .debug_macro   0x00000000       0x3a ./QS/QS_servo.o
 .debug_macro   0x00000000       0x10 ./QS/QS_servo.o
 .debug_macro   0x00000000       0x2e ./QS/QS_servo.o
 .debug_macro   0x00000000       0xa2 ./QS/QS_servo.o
 .debug_macro   0x00000000      0x20e ./QS/QS_servo.o
 .debug_macro   0x00000000       0x18 ./QS/QS_servo.o
 .debug_macro   0x00000000       0x42 ./QS/QS_servo.o
 .debug_macro   0x00000000      0xd39 ./QS/QS_servo.o
 .debug_macro   0x00000000     0x822c ./QS/QS_servo.o
 .debug_macro   0x00000000      0x576 ./QS/QS_servo.o
 .debug_macro   0x00000000       0x82 ./QS/QS_servo.o
 .debug_macro   0x00000000       0x35 ./QS/QS_servo.o
 .debug_macro   0x00000000       0x10 ./QS/QS_servo.o
 .debug_macro   0x00000000       0x16 ./QS/QS_servo.o
 .debug_macro   0x00000000       0x64 ./QS/QS_servo.o
 .debug_macro   0x00000000       0xac ./QS/QS_servo.o
 .debug_macro   0x00000000       0x7c ./QS/QS_servo.o
 .group         0x00000000        0x8 ./QS/QS_spi.o
 .group         0x00000000        0x8 ./QS/QS_spi.o
 .group         0x00000000        0x8 ./QS/QS_spi.o
 .group         0x00000000        0x8 ./QS/QS_spi.o
 .group         0x00000000        0x8 ./QS/QS_spi.o
 .group         0x00000000        0x8 ./QS/QS_spi.o
 .group         0x00000000        0x8 ./QS/QS_spi.o
 .group         0x00000000        0x8 ./QS/QS_spi.o
 .group         0x00000000        0x8 ./QS/QS_spi.o
 .group         0x00000000        0x8 ./QS/QS_spi.o
 .group         0x00000000        0x8 ./QS/QS_spi.o
 .group         0x00000000        0x8 ./QS/QS_spi.o
 .group         0x00000000        0x8 ./QS/QS_spi.o
 .group         0x00000000        0x8 ./QS/QS_spi.o
 .group         0x00000000        0x8 ./QS/QS_spi.o
 .group         0x00000000        0x8 ./QS/QS_spi.o
 .group         0x00000000        0x8 ./QS/QS_spi.o
 .group         0x00000000        0x8 ./QS/QS_spi.o
 .group         0x00000000        0x8 ./QS/QS_spi.o
 .group         0x00000000        0x8 ./QS/QS_spi.o
 .group         0x00000000        0x8 ./QS/QS_spi.o
 .group         0x00000000        0x8 ./QS/QS_spi.o
 .debug_macro   0x00000000      0x7fc ./QS/QS_spi.o
 .debug_macro   0x00000000       0x69 ./QS/QS_spi.o
 .debug_macro   0x00000000       0x3b ./QS/QS_spi.o
 .debug_macro   0x00000000       0x3a ./QS/QS_spi.o
 .debug_macro   0x00000000       0x10 ./QS/QS_spi.o
 .debug_macro   0x00000000       0x2e ./QS/QS_spi.o
 .debug_macro   0x00000000       0xa2 ./QS/QS_spi.o
 .debug_macro   0x00000000      0x20e ./QS/QS_spi.o
 .debug_macro   0x00000000       0x18 ./QS/QS_spi.o
 .debug_macro   0x00000000       0x42 ./QS/QS_spi.o
 .debug_macro   0x00000000      0xd39 ./QS/QS_spi.o
 .debug_macro   0x00000000     0x822c ./QS/QS_spi.o
 .debug_macro   0x00000000      0x576 ./QS/QS_spi.o
 .debug_macro   0x00000000       0x82 ./QS/QS_spi.o
 .debug_macro   0x00000000       0x35 ./QS/QS_spi.o
 .debug_macro   0x00000000       0x10 ./QS/QS_spi.o
 .debug_macro   0x00000000       0x16 ./QS/QS_spi.o
 .debug_macro   0x00000000       0x64 ./QS/QS_spi.o
 .debug_macro   0x00000000       0xac ./QS/QS_spi.o
 .debug_macro   0x00000000       0x7c ./QS/QS_spi.o
 .debug_macro   0x00000000       0x58 ./QS/QS_spi.o
 .group         0x00000000        0x8 ./QS/QS_sys.o
 .group         0x00000000        0x8 ./QS/QS_sys.o
 .group         0x00000000        0x8 ./QS/QS_sys.o
 .group         0x00000000        0x8 ./QS/QS_sys.o
 .group         0x00000000        0x8 ./QS/QS_sys.o
 .group         0x00000000        0x8 ./QS/QS_sys.o
 .group         0x00000000        0x8 ./QS/QS_sys.o
 .group         0x00000000        0x8 ./QS/QS_sys.o
 .group         0x00000000        0x8 ./QS/QS_sys.o
 .group         0x00000000        0x8 ./QS/QS_sys.o
 .group         0x00000000        0x8 ./QS/QS_sys.o
 .group         0x00000000        0x8 ./QS/QS_sys.o
 .group         0x00000000        0x8 ./QS/QS_sys.o
 .group         0x00000000        0x8 ./QS/QS_sys.o
 .group         0x00000000        0x8 ./QS/QS_sys.o
 .group         0x00000000        0x8 ./QS/QS_sys.o
 .group         0x00000000        0x8 ./QS/QS_sys.o
 .group         0x00000000        0x8 ./QS/QS_sys.o
 .group         0x00000000        0x8 ./QS/QS_sys.o
 .group         0x00000000        0x8 ./QS/QS_sys.o
 .group         0x00000000        0x8 ./QS/QS_sys.o
 .group         0x00000000        0x8 ./QS/QS_sys.o
 .group         0x00000000        0x8 ./QS/QS_sys.o
 .group         0x00000000        0x8 ./QS/QS_sys.o
 .group         0x00000000        0x8 ./QS/QS_sys.o
 .group         0x00000000        0x8 ./QS/QS_sys.o
 .group         0x00000000        0x8 ./QS/QS_sys.o
 .group         0x00000000        0x8 ./QS/QS_sys.o
 .group         0x00000000        0x8 ./QS/QS_sys.o
 .group         0x00000000        0x8 ./QS/QS_sys.o
 .group         0x00000000        0x8 ./QS/QS_sys.o
 .group         0x00000000        0x8 ./QS/QS_sys.o
 .group         0x00000000        0x8 ./QS/QS_sys.o
 .group         0x00000000        0x8 ./QS/QS_sys.o
 .group         0x00000000        0x8 ./QS/QS_sys.o
 .group         0x00000000        0x8 ./QS/QS_sys.o
 .group         0x00000000        0x8 ./QS/QS_sys.o
 .group         0x00000000        0x8 ./QS/QS_sys.o
 .group         0x00000000        0x8 ./QS/QS_sys.o
 .group         0x00000000        0x8 ./QS/QS_sys.o
 .group         0x00000000        0x8 ./QS/QS_sys.o
 .group         0x00000000        0x8 ./QS/QS_sys.o
 .group         0x00000000        0x8 ./QS/QS_sys.o
 .group         0x00000000        0x8 ./QS/QS_sys.o
 .group         0x00000000        0x8 ./QS/QS_sys.o
 .debug_macro   0x00000000      0x7fc ./QS/QS_sys.o
 .debug_macro   0x00000000       0x69 ./QS/QS_sys.o
 .debug_macro   0x00000000       0x3b ./QS/QS_sys.o
 .debug_macro   0x00000000       0x3a ./QS/QS_sys.o
 .debug_macro   0x00000000       0x10 ./QS/QS_sys.o
 .debug_macro   0x00000000       0x2e ./QS/QS_sys.o
 .debug_macro   0x00000000       0xa2 ./QS/QS_sys.o
 .debug_macro   0x00000000      0x20e ./QS/QS_sys.o
 .debug_macro   0x00000000       0x18 ./QS/QS_sys.o
 .debug_macro   0x00000000       0x42 ./QS/QS_sys.o
 .debug_macro   0x00000000      0xd39 ./QS/QS_sys.o
 .debug_macro   0x00000000     0x822c ./QS/QS_sys.o
 .debug_macro   0x00000000      0x576 ./QS/QS_sys.o
 .debug_macro   0x00000000       0x82 ./QS/QS_sys.o
 .debug_macro   0x00000000       0x35 ./QS/QS_sys.o
 .debug_macro   0x00000000       0x10 ./QS/QS_sys.o
 .debug_macro   0x00000000       0x16 ./QS/QS_sys.o
 .debug_macro   0x00000000       0x64 ./QS/QS_sys.o
 .debug_macro   0x00000000       0xac ./QS/QS_sys.o
 .debug_macro   0x00000000       0x7c ./QS/QS_sys.o
 .debug_macro   0x00000000      0x223 ./QS/QS_sys.o
 .debug_macro   0x00000000       0x3a ./QS/QS_sys.o
 .debug_macro   0x00000000       0x52 ./QS/QS_sys.o
 .debug_macro   0x00000000       0x19 ./QS/QS_sys.o
 .debug_macro   0x00000000      0x16d ./QS/QS_sys.o
 .debug_macro   0x00000000       0x89 ./QS/QS_sys.o
 .debug_macro   0x00000000       0x10 ./QS/QS_sys.o
 .debug_macro   0x00000000       0xf5 ./QS/QS_sys.o
 .debug_macro   0x00000000       0x22 ./QS/QS_sys.o
 .debug_macro   0x00000000       0x91 ./QS/QS_sys.o
 .debug_macro   0x00000000       0x10 ./QS/QS_sys.o
 .debug_macro   0x00000000       0x16 ./QS/QS_sys.o
 .debug_macro   0x00000000       0x34 ./QS/QS_sys.o
 .group         0x00000000        0x8 ./QS/QS_timer.o
 .group         0x00000000        0x8 ./QS/QS_timer.o
 .group         0x00000000        0x8 ./QS/QS_timer.o
 .group         0x00000000        0x8 ./QS/QS_timer.o
 .group         0x00000000        0x8 ./QS/QS_timer.o
 .group         0x00000000        0x8 ./QS/QS_timer.o
 .group         0x00000000        0x8 ./QS/QS_timer.o
 .group         0x00000000        0x8 ./QS/QS_timer.o
 .group         0x00000000        0x8 ./QS/QS_timer.o
 .group         0x00000000        0x8 ./QS/QS_timer.o
 .group         0x00000000        0x8 ./QS/QS_timer.o
 .group         0x00000000        0x8 ./QS/QS_timer.o
 .group         0x00000000        0x8 ./QS/QS_timer.o
 .group         0x00000000        0x8 ./QS/QS_timer.o
 .group         0x00000000        0x8 ./QS/QS_timer.o
 .group         0x00000000        0x8 ./QS/QS_timer.o
 .group         0x00000000        0x8 ./QS/QS_timer.o
 .group         0x00000000        0x8 ./QS/QS_timer.o
 .group         0x00000000        0x8 ./QS/QS_timer.o
 .group         0x00000000        0x8 ./QS/QS_timer.o
 .group         0x00000000        0x8 ./QS/QS_timer.o
 .group         0x00000000        0x8 ./QS/QS_timer.o
 .debug_macro   0x00000000      0x7fc ./QS/QS_timer.o
 .debug_macro   0x00000000       0x69 ./QS/QS_timer.o
 .debug_macro   0x00000000       0x3b ./QS/QS_timer.o
 .debug_macro   0x00000000       0x3a ./QS/QS_timer.o
 .debug_macro   0x00000000       0x10 ./QS/QS_timer.o
 .debug_macro   0x00000000       0x2e ./QS/QS_timer.o
 .debug_macro   0x00000000       0xa2 ./QS/QS_timer.o
 .debug_macro   0x00000000      0x20e ./QS/QS_timer.o
 .debug_macro   0x00000000       0x18 ./QS/QS_timer.o
 .debug_macro   0x00000000       0x42 ./QS/QS_timer.o
 .debug_macro   0x00000000      0xd39 ./QS/QS_timer.o
 .debug_macro   0x00000000     0x822c ./QS/QS_timer.o
 .debug_macro   0x00000000      0x576 ./QS/QS_timer.o
 .debug_macro   0x00000000       0x82 ./QS/QS_timer.o
 .debug_macro   0x00000000       0x35 ./QS/QS_timer.o
 .debug_macro   0x00000000       0x10 ./QS/QS_timer.o
 .debug_macro   0x00000000       0x16 ./QS/QS_timer.o
 .debug_macro   0x00000000       0x64 ./QS/QS_timer.o
 .debug_macro   0x00000000       0xac ./QS/QS_timer.o
 .debug_macro   0x00000000       0x7c ./QS/QS_timer.o
 .debug_macro   0x00000000      0x73b ./QS/QS_timer.o
 .debug_macro   0x00000000       0x4c ./QS/QS_timer.o
 .group         0x00000000        0x8 ./QS/QS_trap_handler.o
 .group         0x00000000        0x8 ./QS/QS_trap_handler.o
 .group         0x00000000        0x8 ./QS/QS_trap_handler.o
 .group         0x00000000        0x8 ./QS/QS_trap_handler.o
 .group         0x00000000        0x8 ./QS/QS_trap_handler.o
 .group         0x00000000        0x8 ./QS/QS_trap_handler.o
 .group         0x00000000        0x8 ./QS/QS_trap_handler.o
 .group         0x00000000        0x8 ./QS/QS_trap_handler.o
 .group         0x00000000        0x8 ./QS/QS_trap_handler.o
 .group         0x00000000        0x8 ./QS/QS_trap_handler.o
 .group         0x00000000        0x8 ./QS/QS_trap_handler.o
 .group         0x00000000        0x8 ./QS/QS_trap_handler.o
 .group         0x00000000        0x8 ./QS/QS_trap_handler.o
 .group         0x00000000        0x8 ./QS/QS_trap_handler.o
 .group         0x00000000        0x8 ./QS/QS_trap_handler.o
 .group         0x00000000        0x8 ./QS/QS_trap_handler.o
 .group         0x00000000        0x8 ./QS/QS_trap_handler.o
 .group         0x00000000        0x8 ./QS/QS_trap_handler.o
 .group         0x00000000        0x8 ./QS/QS_trap_handler.o
 .group         0x00000000        0x8 ./QS/QS_trap_handler.o
 .group         0x00000000        0x8 ./QS/QS_trap_handler.o
 .debug_macro   0x00000000      0x7fc ./QS/QS_trap_handler.o
 .debug_macro   0x00000000       0x69 ./QS/QS_trap_handler.o
 .debug_macro   0x00000000       0x3b ./QS/QS_trap_handler.o
 .debug_macro   0x00000000       0x3a ./QS/QS_trap_handler.o
 .debug_macro   0x00000000       0x10 ./QS/QS_trap_handler.o
 .debug_macro   0x00000000       0x2e ./QS/QS_trap_handler.o
 .debug_macro   0x00000000       0xa2 ./QS/QS_trap_handler.o
 .debug_macro   0x00000000      0x20e ./QS/QS_trap_handler.o
 .debug_macro   0x00000000       0x18 ./QS/QS_trap_handler.o
 .debug_macro   0x00000000       0x42 ./QS/QS_trap_handler.o
 .debug_macro   0x00000000      0xd39 ./QS/QS_trap_handler.o
 .debug_macro   0x00000000     0x822c ./QS/QS_trap_handler.o
 .debug_macro   0x00000000      0x576 ./QS/QS_trap_handler.o
 .debug_macro   0x00000000       0x82 ./QS/QS_trap_handler.o
 .debug_macro   0x00000000       0x35 ./QS/QS_trap_handler.o
 .debug_macro   0x00000000       0x10 ./QS/QS_trap_handler.o
 .debug_macro   0x00000000       0x16 ./QS/QS_trap_handler.o
 .debug_macro   0x00000000       0x64 ./QS/QS_trap_handler.o
 .debug_macro   0x00000000       0xac ./QS/QS_trap_handler.o
 .debug_macro   0x00000000       0x7c ./QS/QS_trap_handler.o
 .debug_macro   0x00000000       0x58 ./QS/QS_trap_handler.o
 .group         0x00000000        0x8 ./QS/QS_uart.o
 .group         0x00000000        0x8 ./QS/QS_uart.o
 .group         0x00000000        0x8 ./QS/QS_uart.o
 .group         0x00000000        0x8 ./QS/QS_uart.o
 .group         0x00000000        0x8 ./QS/QS_uart.o
 .group         0x00000000        0x8 ./QS/QS_uart.o
 .group         0x00000000        0x8 ./QS/QS_uart.o
 .group         0x00000000        0x8 ./QS/QS_uart.o
 .group         0x00000000        0x8 ./QS/QS_uart.o
 .group         0x00000000        0x8 ./QS/QS_uart.o
 .group         0x00000000        0x8 ./QS/QS_uart.o
 .group         0x00000000        0x8 ./QS/QS_uart.o
 .group         0x00000000        0x8 ./QS/QS_uart.o
 .group         0x00000000        0x8 ./QS/QS_uart.o
 .group         0x00000000        0x8 ./QS/QS_uart.o
 .group         0x00000000        0x8 ./QS/QS_uart.o
 .group         0x00000000        0x8 ./QS/QS_uart.o
 .group         0x00000000        0x8 ./QS/QS_uart.o
 .group         0x00000000        0x8 ./QS/QS_uart.o
 .group         0x00000000        0x8 ./QS/QS_uart.o
 .group         0x00000000        0x8 ./QS/QS_uart.o
 .group         0x00000000        0x8 ./QS/QS_uart.o
 .group         0x00000000        0x8 ./QS/QS_uart.o
 .debug_macro   0x00000000      0x7fc ./QS/QS_uart.o
 .debug_macro   0x00000000       0x69 ./QS/QS_uart.o
 .debug_macro   0x00000000       0x3b ./QS/QS_uart.o
 .debug_macro   0x00000000       0x3a ./QS/QS_uart.o
 .debug_macro   0x00000000       0x10 ./QS/QS_uart.o
 .debug_macro   0x00000000       0x2e ./QS/QS_uart.o
 .debug_macro   0x00000000       0xa2 ./QS/QS_uart.o
 .debug_macro   0x00000000      0x20e ./QS/QS_uart.o
 .debug_macro   0x00000000       0x18 ./QS/QS_uart.o
 .debug_macro   0x00000000       0x42 ./QS/QS_uart.o
 .debug_macro   0x00000000      0xd39 ./QS/QS_uart.o
 .debug_macro   0x00000000     0x822c ./QS/QS_uart.o
 .debug_macro   0x00000000      0x576 ./QS/QS_uart.o
 .debug_macro   0x00000000       0x82 ./QS/QS_uart.o
 .debug_macro   0x00000000       0x35 ./QS/QS_uart.o
 .debug_macro   0x00000000       0x10 ./QS/QS_uart.o
 .debug_macro   0x00000000       0x16 ./QS/QS_uart.o
 .debug_macro   0x00000000       0x64 ./QS/QS_uart.o
 .debug_macro   0x00000000       0xac ./QS/QS_uart.o
 .debug_macro   0x00000000       0x7c ./QS/QS_uart.o
 .debug_macro   0x00000000      0x223 ./QS/QS_uart.o
 .debug_macro   0x00000000       0x5e ./QS/QS_uart.o
 .debug_macro   0x00000000       0xb8 ./QS/QS_uart.o
 .group         0x00000000        0x8 ./QS/QS_watchdog.o
 .group         0x00000000        0x8 ./QS/QS_watchdog.o
 .group         0x00000000        0x8 ./QS/QS_watchdog.o
 .group         0x00000000        0x8 ./QS/QS_watchdog.o
 .group         0x00000000        0x8 ./QS/QS_watchdog.o
 .group         0x00000000        0x8 ./QS/QS_watchdog.o
 .group         0x00000000        0x8 ./QS/QS_watchdog.o
 .group         0x00000000        0x8 ./QS/QS_watchdog.o
 .group         0x00000000        0x8 ./QS/QS_watchdog.o
 .group         0x00000000        0x8 ./QS/QS_watchdog.o
 .group         0x00000000        0x8 ./QS/QS_watchdog.o
 .group         0x00000000        0x8 ./QS/QS_watchdog.o
 .group         0x00000000        0x8 ./QS/QS_watchdog.o
 .group         0x00000000        0x8 ./QS/QS_watchdog.o
 .group         0x00000000        0x8 ./QS/QS_watchdog.o
 .group         0x00000000        0x8 ./QS/QS_watchdog.o
 .group         0x00000000        0x8 ./QS/QS_watchdog.o
 .group         0x00000000        0x8 ./QS/QS_watchdog.o
 .group         0x00000000        0x8 ./QS/QS_watchdog.o
 .group         0x00000000        0x8 ./QS/QS_watchdog.o
 .debug_macro   0x00000000      0x7fc ./QS/QS_watchdog.o
 .debug_macro   0x00000000       0x69 ./QS/QS_watchdog.o
 .debug_macro   0x00000000       0x3b ./QS/QS_watchdog.o
 .debug_macro   0x00000000       0x3a ./QS/QS_watchdog.o
 .debug_macro   0x00000000       0x10 ./QS/QS_watchdog.o
 .debug_macro   0x00000000       0x2e ./QS/QS_watchdog.o
 .debug_macro   0x00000000       0xa2 ./QS/QS_watchdog.o
 .debug_macro   0x00000000      0x20e ./QS/QS_watchdog.o
 .debug_macro   0x00000000       0x18 ./QS/QS_watchdog.o
 .debug_macro   0x00000000       0x42 ./QS/QS_watchdog.o
 .debug_macro   0x00000000      0xd39 ./QS/QS_watchdog.o
 .debug_macro   0x00000000     0x822c ./QS/QS_watchdog.o
 .debug_macro   0x00000000      0x576 ./QS/QS_watchdog.o
 .debug_macro   0x00000000       0x82 ./QS/QS_watchdog.o
 .debug_macro   0x00000000       0x35 ./QS/QS_watchdog.o
 .debug_macro   0x00000000       0x10 ./QS/QS_watchdog.o
 .debug_macro   0x00000000       0x16 ./QS/QS_watchdog.o
 .debug_macro   0x00000000       0x64 ./QS/QS_watchdog.o
 .debug_macro   0x00000000       0xac ./QS/QS_watchdog.o
 .debug_macro   0x00000000       0x7c ./QS/QS_watchdog.o
 .group         0x00000000        0x8 ./QS/QS_who_am_i.o
 .group         0x00000000        0x8 ./QS/QS_who_am_i.o
 .group         0x00000000        0x8 ./QS/QS_who_am_i.o
 .group         0x00000000        0x8 ./QS/QS_who_am_i.o
 .group         0x00000000        0x8 ./QS/QS_who_am_i.o
 .group         0x00000000        0x8 ./QS/QS_who_am_i.o
 .group         0x00000000        0x8 ./QS/QS_who_am_i.o
 .group         0x00000000        0x8 ./QS/QS_who_am_i.o
 .group         0x00000000        0x8 ./QS/QS_who_am_i.o
 .group         0x00000000        0x8 ./QS/QS_who_am_i.o
 .group         0x00000000        0x8 ./QS/QS_who_am_i.o
 .group         0x00000000        0x8 ./QS/QS_who_am_i.o
 .group         0x00000000        0x8 ./QS/QS_who_am_i.o
 .group         0x00000000        0x8 ./QS/QS_who_am_i.o
 .group         0x00000000        0x8 ./QS/QS_who_am_i.o
 .group         0x00000000        0x8 ./QS/QS_who_am_i.o
 .group         0x00000000        0x8 ./QS/QS_who_am_i.o
 .group         0x00000000        0x8 ./QS/QS_who_am_i.o
 .group         0x00000000        0x8 ./QS/QS_who_am_i.o
 .group         0x00000000        0x8 ./QS/QS_who_am_i.o
 .group         0x00000000        0x8 ./QS/QS_who_am_i.o
 .group         0x00000000        0x8 ./QS/QS_who_am_i.o
 .debug_macro   0x00000000      0x7fc ./QS/QS_who_am_i.o
 .debug_macro   0x00000000       0x69 ./QS/QS_who_am_i.o
 .debug_macro   0x00000000       0x3b ./QS/QS_who_am_i.o
 .debug_macro   0x00000000       0x3a ./QS/QS_who_am_i.o
 .debug_macro   0x00000000       0x10 ./QS/QS_who_am_i.o
 .debug_macro   0x00000000       0x2e ./QS/QS_who_am_i.o
 .debug_macro   0x00000000       0xa2 ./QS/QS_who_am_i.o
 .debug_macro   0x00000000      0x20e ./QS/QS_who_am_i.o
 .debug_macro   0x00000000       0x18 ./QS/QS_who_am_i.o
 .debug_macro   0x00000000       0x42 ./QS/QS_who_am_i.o
 .debug_macro   0x00000000      0xd39 ./QS/QS_who_am_i.o
 .debug_macro   0x00000000     0x822c ./QS/QS_who_am_i.o
 .debug_macro   0x00000000      0x576 ./QS/QS_who_am_i.o
 .debug_macro   0x00000000       0x82 ./QS/QS_who_am_i.o
 .debug_macro   0x00000000       0x35 ./QS/QS_who_am_i.o
 .debug_macro   0x00000000       0x10 ./QS/QS_who_am_i.o
 .debug_macro   0x00000000       0x16 ./QS/QS_who_am_i.o
 .debug_macro   0x00000000       0x64 ./QS/QS_who_am_i.o
 .debug_macro   0x00000000       0xac ./QS/QS_who_am_i.o
 .debug_macro   0x00000000       0x7c ./QS/QS_who_am_i.o
 .debug_macro   0x00000000       0x5e ./QS/QS_who_am_i.o
 .debug_macro   0x00000000       0xb8 ./QS/QS_who_am_i.o
 .group         0x00000000        0x8 ./Krusty/KActManager.o
 .group         0x00000000        0x8 ./Krusty/KActManager.o
 .group         0x00000000        0x8 ./Krusty/KActManager.o
 .group         0x00000000        0x8 ./Krusty/KActManager.o
 .group         0x00000000        0x8 ./Krusty/KActManager.o
 .group         0x00000000        0x8 ./Krusty/KActManager.o
 .group         0x00000000        0x8 ./Krusty/KActManager.o
 .group         0x00000000        0x8 ./Krusty/KActManager.o
 .group         0x00000000        0x8 ./Krusty/KActManager.o
 .group         0x00000000        0x8 ./Krusty/KActManager.o
 .group         0x00000000        0x8 ./Krusty/KActManager.o
 .group         0x00000000        0x8 ./Krusty/KActManager.o
 .group         0x00000000        0x8 ./Krusty/KActManager.o
 .group         0x00000000        0x8 ./Krusty/KActManager.o
 .group         0x00000000        0x8 ./Krusty/KActManager.o
 .group         0x00000000        0x8 ./Krusty/KActManager.o
 .group         0x00000000        0x8 ./Krusty/KActManager.o
 .group         0x00000000        0x8 ./Krusty/KActManager.o
 .group         0x00000000        0x8 ./Krusty/KActManager.o
 .group         0x00000000        0x8 ./Krusty/KActManager.o
 .group         0x00000000        0x8 ./Krusty/KActManager.o
 .group         0x00000000        0x8 ./Krusty/KActManager.o
 .group         0x00000000        0x8 ./Krusty/KActManager.o
 .group         0x00000000        0x8 ./Krusty/KActManager.o
 .group         0x00000000        0x8 ./Krusty/KActManager.o
 .group         0x00000000        0x8 ./Krusty/KActManager.o
 .group         0x00000000        0x8 ./Krusty/KActManager.o
 .debug_macro   0x00000000      0x7fc ./Krusty/KActManager.o
 .debug_macro   0x00000000       0x69 ./Krusty/KActManager.o
 .debug_macro   0x00000000       0x3b ./Krusty/KActManager.o
 .debug_macro   0x00000000       0x3a ./Krusty/KActManager.o
 .debug_macro   0x00000000       0x10 ./Krusty/KActManager.o
 .debug_macro   0x00000000       0x2e ./Krusty/KActManager.o
 .debug_macro   0x00000000       0xa2 ./Krusty/KActManager.o
 .debug_macro   0x00000000      0x20e ./Krusty/KActManager.o
 .debug_macro   0x00000000       0x18 ./Krusty/KActManager.o
 .debug_macro   0x00000000       0x42 ./Krusty/KActManager.o
 .debug_macro   0x00000000      0xd39 ./Krusty/KActManager.o
 .debug_macro   0x00000000     0x822c ./Krusty/KActManager.o
 .debug_macro   0x00000000      0x576 ./Krusty/KActManager.o
 .debug_macro   0x00000000       0x82 ./Krusty/KActManager.o
 .debug_macro   0x00000000       0x35 ./Krusty/KActManager.o
 .debug_macro   0x00000000       0x10 ./Krusty/KActManager.o
 .debug_macro   0x00000000       0x16 ./Krusty/KActManager.o
 .debug_macro   0x00000000       0x64 ./Krusty/KActManager.o
 .debug_macro   0x00000000       0xac ./Krusty/KActManager.o
 .debug_macro   0x00000000       0x7c ./Krusty/KActManager.o
 .debug_macro   0x00000000      0x73b ./Krusty/KActManager.o
 .debug_macro   0x00000000       0x4c ./Krusty/KActManager.o
 .debug_macro   0x00000000      0x460 ./Krusty/KActManager.o
 .debug_macro   0x00000000       0x5e ./Krusty/KActManager.o
 .debug_macro   0x00000000       0xb8 ./Krusty/KActManager.o
 .group         0x00000000        0x8 ./Krusty/KBall_launcher.o
 .group         0x00000000        0x8 ./Krusty/KBall_launcher.o
 .group         0x00000000        0x8 ./Krusty/KBall_launcher.o
 .group         0x00000000        0x8 ./Krusty/KBall_launcher.o
 .group         0x00000000        0x8 ./Krusty/KBall_launcher.o
 .group         0x00000000        0x8 ./Krusty/KBall_launcher.o
 .group         0x00000000        0x8 ./Krusty/KBall_launcher.o
 .group         0x00000000        0x8 ./Krusty/KBall_launcher.o
 .group         0x00000000        0x8 ./Krusty/KBall_launcher.o
 .group         0x00000000        0x8 ./Krusty/KBall_launcher.o
 .group         0x00000000        0x8 ./Krusty/KBall_launcher.o
 .group         0x00000000        0x8 ./Krusty/KBall_launcher.o
 .group         0x00000000        0x8 ./Krusty/KBall_launcher.o
 .group         0x00000000        0x8 ./Krusty/KBall_launcher.o
 .group         0x00000000        0x8 ./Krusty/KBall_launcher.o
 .group         0x00000000        0x8 ./Krusty/KBall_launcher.o
 .group         0x00000000        0x8 ./Krusty/KBall_launcher.o
 .group         0x00000000        0x8 ./Krusty/KBall_launcher.o
 .group         0x00000000        0x8 ./Krusty/KBall_launcher.o
 .group         0x00000000        0x8 ./Krusty/KBall_launcher.o
 .group         0x00000000        0x8 ./Krusty/KBall_launcher.o
 .group         0x00000000        0x8 ./Krusty/KBall_launcher.o
 .group         0x00000000        0x8 ./Krusty/KBall_launcher.o
 .group         0x00000000        0x8 ./Krusty/KBall_launcher.o
 .group         0x00000000        0x8 ./Krusty/KBall_launcher.o
 .group         0x00000000        0x8 ./Krusty/KBall_launcher.o
 .group         0x00000000        0x8 ./Krusty/KBall_launcher.o
 .group         0x00000000        0x8 ./Krusty/KBall_launcher.o
 .group         0x00000000        0x8 ./Krusty/KBall_launcher.o
 .debug_macro   0x00000000      0x7fc ./Krusty/KBall_launcher.o
 .debug_macro   0x00000000       0x69 ./Krusty/KBall_launcher.o
 .debug_macro   0x00000000       0x3b ./Krusty/KBall_launcher.o
 .debug_macro   0x00000000       0x3a ./Krusty/KBall_launcher.o
 .debug_macro   0x00000000       0x10 ./Krusty/KBall_launcher.o
 .debug_macro   0x00000000       0x2e ./Krusty/KBall_launcher.o
 .debug_macro   0x00000000       0xa2 ./Krusty/KBall_launcher.o
 .debug_macro   0x00000000      0x20e ./Krusty/KBall_launcher.o
 .debug_macro   0x00000000       0x18 ./Krusty/KBall_launcher.o
 .debug_macro   0x00000000       0x42 ./Krusty/KBall_launcher.o
 .debug_macro   0x00000000      0xd39 ./Krusty/KBall_launcher.o
 .debug_macro   0x00000000     0x822c ./Krusty/KBall_launcher.o
 .debug_macro   0x00000000      0x576 ./Krusty/KBall_launcher.o
 .debug_macro   0x00000000       0x82 ./Krusty/KBall_launcher.o
 .debug_macro   0x00000000       0x35 ./Krusty/KBall_launcher.o
 .debug_macro   0x00000000       0x10 ./Krusty/KBall_launcher.o
 .debug_macro   0x00000000       0x16 ./Krusty/KBall_launcher.o
 .debug_macro   0x00000000       0x64 ./Krusty/KBall_launcher.o
 .debug_macro   0x00000000       0xac ./Krusty/KBall_launcher.o
 .debug_macro   0x00000000       0x7c ./Krusty/KBall_launcher.o
 .debug_macro   0x00000000      0x73b ./Krusty/KBall_launcher.o
 .debug_macro   0x00000000       0x4c ./Krusty/KBall_launcher.o
 .debug_macro   0x00000000       0x28 ./Krusty/KBall_launcher.o
 .debug_macro   0x00000000      0x460 ./Krusty/KBall_launcher.o
 .debug_macro   0x00000000       0x5e ./Krusty/KBall_launcher.o
 .debug_macro   0x00000000       0xb8 ./Krusty/KBall_launcher.o
 .debug_macro   0x00000000       0x5e ./Krusty/KBall_launcher.o
 .group         0x00000000        0x8 ./Krusty/KBall_sorter.o
 .group         0x00000000        0x8 ./Krusty/KBall_sorter.o
 .group         0x00000000        0x8 ./Krusty/KBall_sorter.o
 .group         0x00000000        0x8 ./Krusty/KBall_sorter.o
 .group         0x00000000        0x8 ./Krusty/KBall_sorter.o
 .group         0x00000000        0x8 ./Krusty/KBall_sorter.o
 .group         0x00000000        0x8 ./Krusty/KBall_sorter.o
 .group         0x00000000        0x8 ./Krusty/KBall_sorter.o
 .group         0x00000000        0x8 ./Krusty/KBall_sorter.o
 .group         0x00000000        0x8 ./Krusty/KBall_sorter.o
 .group         0x00000000        0x8 ./Krusty/KBall_sorter.o
 .group         0x00000000        0x8 ./Krusty/KBall_sorter.o
 .group         0x00000000        0x8 ./Krusty/KBall_sorter.o
 .group         0x00000000        0x8 ./Krusty/KBall_sorter.o
 .group         0x00000000        0x8 ./Krusty/KBall_sorter.o
 .group         0x00000000        0x8 ./Krusty/KBall_sorter.o
 .group         0x00000000        0x8 ./Krusty/KBall_sorter.o
 .group         0x00000000        0x8 ./Krusty/KBall_sorter.o
 .group         0x00000000        0x8 ./Krusty/KBall_sorter.o
 .group         0x00000000        0x8 ./Krusty/KBall_sorter.o
 .group         0x00000000        0x8 ./Krusty/KBall_sorter.o
 .group         0x00000000        0x8 ./Krusty/KBall_sorter.o
 .group         0x00000000        0x8 ./Krusty/KBall_sorter.o
 .group         0x00000000        0x8 ./Krusty/KBall_sorter.o
 .group         0x00000000        0x8 ./Krusty/KBall_sorter.o
 .group         0x00000000        0x8 ./Krusty/KBall_sorter.o
 .group         0x00000000        0x8 ./Krusty/KBall_sorter.o
 .group         0x00000000        0x8 ./Krusty/KBall_sorter.o
 .group         0x00000000        0x8 ./Krusty/KBall_sorter.o
 .group         0x00000000        0x8 ./Krusty/KBall_sorter.o
 .debug_macro   0x00000000      0x7fc ./Krusty/KBall_sorter.o
 .debug_macro   0x00000000       0x69 ./Krusty/KBall_sorter.o
 .debug_macro   0x00000000       0x3b ./Krusty/KBall_sorter.o
 .debug_macro   0x00000000       0x3a ./Krusty/KBall_sorter.o
 .debug_macro   0x00000000       0x10 ./Krusty/KBall_sorter.o
 .debug_macro   0x00000000       0x2e ./Krusty/KBall_sorter.o
 .debug_macro   0x00000000       0xa2 ./Krusty/KBall_sorter.o
 .debug_macro   0x00000000      0x20e ./Krusty/KBall_sorter.o
 .debug_macro   0x00000000       0x18 ./Krusty/KBall_sorter.o
 .debug_macro   0x00000000       0x42 ./Krusty/KBall_sorter.o
 .debug_macro   0x00000000      0xd39 ./Krusty/KBall_sorter.o
 .debug_macro   0x00000000     0x822c ./Krusty/KBall_sorter.o
 .debug_macro   0x00000000      0x576 ./Krusty/KBall_sorter.o
 .debug_macro   0x00000000       0x82 ./Krusty/KBall_sorter.o
 .debug_macro   0x00000000       0x35 ./Krusty/KBall_sorter.o
 .debug_macro   0x00000000       0x10 ./Krusty/KBall_sorter.o
 .debug_macro   0x00000000       0x16 ./Krusty/KBall_sorter.o
 .debug_macro   0x00000000       0x64 ./Krusty/KBall_sorter.o
 .debug_macro   0x00000000       0xac ./Krusty/KBall_sorter.o
 .debug_macro   0x00000000       0x7c ./Krusty/KBall_sorter.o
 .debug_macro   0x00000000      0x73b ./Krusty/KBall_sorter.o
 .debug_macro   0x00000000       0x4c ./Krusty/KBall_sorter.o
 .debug_macro   0x00000000       0x28 ./Krusty/KBall_sorter.o
 .debug_macro   0x00000000      0x460 ./Krusty/KBall_sorter.o
 .debug_macro   0x00000000       0x65 ./Krusty/KBall_sorter.o
 .debug_macro   0x00000000       0x5e ./Krusty/KBall_sorter.o
 .debug_macro   0x00000000       0xb8 ./Krusty/KBall_sorter.o
 .debug_macro   0x00000000       0x5e ./Krusty/KBall_sorter.o
 .debug_macro   0x00000000       0x52 ./Krusty/KBall_sorter.o
 .group         0x00000000        0x8 ./Krusty/KFruit.o
 .group         0x00000000        0x8 ./Krusty/KFruit.o
 .group         0x00000000        0x8 ./Krusty/KFruit.o
 .group         0x00000000        0x8 ./Krusty/KFruit.o
 .group         0x00000000        0x8 ./Krusty/KFruit.o
 .group         0x00000000        0x8 ./Krusty/KFruit.o
 .group         0x00000000        0x8 ./Krusty/KFruit.o
 .group         0x00000000        0x8 ./Krusty/KFruit.o
 .group         0x00000000        0x8 ./Krusty/KFruit.o
 .group         0x00000000        0x8 ./Krusty/KFruit.o
 .group         0x00000000        0x8 ./Krusty/KFruit.o
 .group         0x00000000        0x8 ./Krusty/KFruit.o
 .group         0x00000000        0x8 ./Krusty/KFruit.o
 .group         0x00000000        0x8 ./Krusty/KFruit.o
 .group         0x00000000        0x8 ./Krusty/KFruit.o
 .group         0x00000000        0x8 ./Krusty/KFruit.o
 .group         0x00000000        0x8 ./Krusty/KFruit.o
 .group         0x00000000        0x8 ./Krusty/KFruit.o
 .group         0x00000000        0x8 ./Krusty/KFruit.o
 .group         0x00000000        0x8 ./Krusty/KFruit.o
 .group         0x00000000        0x8 ./Krusty/KFruit.o
 .group         0x00000000        0x8 ./Krusty/KFruit.o
 .group         0x00000000        0x8 ./Krusty/KFruit.o
 .group         0x00000000        0x8 ./Krusty/KFruit.o
 .group         0x00000000        0x8 ./Krusty/KFruit.o
 .group         0x00000000        0x8 ./Krusty/KFruit.o
 .group         0x00000000        0x8 ./Krusty/KFruit.o
 .group         0x00000000        0x8 ./Krusty/KFruit.o
 .group         0x00000000        0x8 ./Krusty/KFruit.o
 .group         0x00000000        0x8 ./Krusty/KFruit.o
 .debug_macro   0x00000000      0x7fc ./Krusty/KFruit.o
 .debug_macro   0x00000000       0x69 ./Krusty/KFruit.o
 .debug_macro   0x00000000       0x3b ./Krusty/KFruit.o
 .debug_macro   0x00000000       0x3a ./Krusty/KFruit.o
 .debug_macro   0x00000000       0x10 ./Krusty/KFruit.o
 .debug_macro   0x00000000       0x2e ./Krusty/KFruit.o
 .debug_macro   0x00000000       0xa2 ./Krusty/KFruit.o
 .debug_macro   0x00000000      0x20e ./Krusty/KFruit.o
 .debug_macro   0x00000000       0x18 ./Krusty/KFruit.o
 .debug_macro   0x00000000       0x42 ./Krusty/KFruit.o
 .debug_macro   0x00000000      0xd39 ./Krusty/KFruit.o
 .debug_macro   0x00000000     0x822c ./Krusty/KFruit.o
 .debug_macro   0x00000000      0x576 ./Krusty/KFruit.o
 .debug_macro   0x00000000       0x82 ./Krusty/KFruit.o
 .debug_macro   0x00000000       0x35 ./Krusty/KFruit.o
 .debug_macro   0x00000000       0x10 ./Krusty/KFruit.o
 .debug_macro   0x00000000       0x16 ./Krusty/KFruit.o
 .debug_macro   0x00000000       0x64 ./Krusty/KFruit.o
 .debug_macro   0x00000000       0xac ./Krusty/KFruit.o
 .debug_macro   0x00000000       0x7c ./Krusty/KFruit.o
 .debug_macro   0x00000000      0x73b ./Krusty/KFruit.o
 .debug_macro   0x00000000       0x4c ./Krusty/KFruit.o
 .debug_macro   0x00000000       0x28 ./Krusty/KFruit.o
 .debug_macro   0x00000000      0x460 ./Krusty/KFruit.o
 .debug_macro   0x00000000       0x65 ./Krusty/KFruit.o
 .debug_macro   0x00000000       0x5e ./Krusty/KFruit.o
 .debug_macro   0x00000000       0xb8 ./Krusty/KFruit.o
 .debug_macro   0x00000000       0x5e ./Krusty/KFruit.o
 .debug_macro   0x00000000       0x52 ./Krusty/KFruit.o
 .group         0x00000000        0x8 ./Krusty/KLift.o
 .group         0x00000000        0x8 ./Krusty/KLift.o
 .group         0x00000000        0x8 ./Krusty/KLift.o
 .group         0x00000000        0x8 ./Krusty/KLift.o
 .group         0x00000000        0x8 ./Krusty/KLift.o
 .group         0x00000000        0x8 ./Krusty/KLift.o
 .group         0x00000000        0x8 ./Krusty/KLift.o
 .group         0x00000000        0x8 ./Krusty/KLift.o
 .group         0x00000000        0x8 ./Krusty/KLift.o
 .group         0x00000000        0x8 ./Krusty/KLift.o
 .group         0x00000000        0x8 ./Krusty/KLift.o
 .group         0x00000000        0x8 ./Krusty/KLift.o
 .group         0x00000000        0x8 ./Krusty/KLift.o
 .group         0x00000000        0x8 ./Krusty/KLift.o
 .group         0x00000000        0x8 ./Krusty/KLift.o
 .group         0x00000000        0x8 ./Krusty/KLift.o
 .group         0x00000000        0x8 ./Krusty/KLift.o
 .group         0x00000000        0x8 ./Krusty/KLift.o
 .group         0x00000000        0x8 ./Krusty/KLift.o
 .group         0x00000000        0x8 ./Krusty/KLift.o
 .group         0x00000000        0x8 ./Krusty/KLift.o
 .group         0x00000000        0x8 ./Krusty/KLift.o
 .group         0x00000000        0x8 ./Krusty/KLift.o
 .group         0x00000000        0x8 ./Krusty/KLift.o
 .group         0x00000000        0x8 ./Krusty/KLift.o
 .group         0x00000000        0x8 ./Krusty/KLift.o
 .group         0x00000000        0x8 ./Krusty/KLift.o
 .group         0x00000000        0x8 ./Krusty/KLift.o
 .group         0x00000000        0x8 ./Krusty/KLift.o
 .group         0x00000000        0x8 ./Krusty/KLift.o
 .debug_macro   0x00000000      0x7fc ./Krusty/KLift.o
 .debug_macro   0x00000000       0x69 ./Krusty/KLift.o
 .debug_macro   0x00000000       0x3b ./Krusty/KLift.o
 .debug_macro   0x00000000       0x3a ./Krusty/KLift.o
 .debug_macro   0x00000000       0x10 ./Krusty/KLift.o
 .debug_macro   0x00000000       0x2e ./Krusty/KLift.o
 .debug_macro   0x00000000       0xa2 ./Krusty/KLift.o
 .debug_macro   0x00000000      0x20e ./Krusty/KLift.o
 .debug_macro   0x00000000       0x18 ./Krusty/KLift.o
 .debug_macro   0x00000000       0x42 ./Krusty/KLift.o
 .debug_macro   0x00000000      0xd39 ./Krusty/KLift.o
 .debug_macro   0x00000000     0x822c ./Krusty/KLift.o
 .debug_macro   0x00000000      0x576 ./Krusty/KLift.o
 .debug_macro   0x00000000       0x82 ./Krusty/KLift.o
 .debug_macro   0x00000000       0x35 ./Krusty/KLift.o
 .debug_macro   0x00000000       0x10 ./Krusty/KLift.o
 .debug_macro   0x00000000       0x16 ./Krusty/KLift.o
 .debug_macro   0x00000000       0x64 ./Krusty/KLift.o
 .debug_macro   0x00000000       0xac ./Krusty/KLift.o
 .debug_macro   0x00000000       0x7c ./Krusty/KLift.o
 .debug_macro   0x00000000      0x73b ./Krusty/KLift.o
 .debug_macro   0x00000000       0x4c ./Krusty/KLift.o
 .debug_macro   0x00000000       0x28 ./Krusty/KLift.o
 .debug_macro   0x00000000      0x460 ./Krusty/KLift.o
 .debug_macro   0x00000000       0x65 ./Krusty/KLift.o
 .debug_macro   0x00000000       0x5e ./Krusty/KLift.o
 .debug_macro   0x00000000       0xb8 ./Krusty/KLift.o
 .debug_macro   0x00000000       0x5e ./Krusty/KLift.o
 .debug_macro   0x00000000       0x52 ./Krusty/KLift.o
 .group         0x00000000        0x8 ./Krusty/KPlate.o
 .group         0x00000000        0x8 ./Krusty/KPlate.o
 .group         0x00000000        0x8 ./Krusty/KPlate.o
 .group         0x00000000        0x8 ./Krusty/KPlate.o
 .group         0x00000000        0x8 ./Krusty/KPlate.o
 .group         0x00000000        0x8 ./Krusty/KPlate.o
 .group         0x00000000        0x8 ./Krusty/KPlate.o
 .group         0x00000000        0x8 ./Krusty/KPlate.o
 .group         0x00000000        0x8 ./Krusty/KPlate.o
 .group         0x00000000        0x8 ./Krusty/KPlate.o
 .group         0x00000000        0x8 ./Krusty/KPlate.o
 .group         0x00000000        0x8 ./Krusty/KPlate.o
 .group         0x00000000        0x8 ./Krusty/KPlate.o
 .group         0x00000000        0x8 ./Krusty/KPlate.o
 .group         0x00000000        0x8 ./Krusty/KPlate.o
 .group         0x00000000        0x8 ./Krusty/KPlate.o
 .group         0x00000000        0x8 ./Krusty/KPlate.o
 .group         0x00000000        0x8 ./Krusty/KPlate.o
 .group         0x00000000        0x8 ./Krusty/KPlate.o
 .group         0x00000000        0x8 ./Krusty/KPlate.o
 .group         0x00000000        0x8 ./Krusty/KPlate.o
 .group         0x00000000        0x8 ./Krusty/KPlate.o
 .group         0x00000000        0x8 ./Krusty/KPlate.o
 .group         0x00000000        0x8 ./Krusty/KPlate.o
 .group         0x00000000        0x8 ./Krusty/KPlate.o
 .group         0x00000000        0x8 ./Krusty/KPlate.o
 .group         0x00000000        0x8 ./Krusty/KPlate.o
 .group         0x00000000        0x8 ./Krusty/KPlate.o
 .group         0x00000000        0x8 ./Krusty/KPlate.o
 .group         0x00000000        0x8 ./Krusty/KPlate.o
 .debug_macro   0x00000000      0x7fc ./Krusty/KPlate.o
 .debug_macro   0x00000000       0x69 ./Krusty/KPlate.o
 .debug_macro   0x00000000       0x3b ./Krusty/KPlate.o
 .debug_macro   0x00000000       0x3a ./Krusty/KPlate.o
 .debug_macro   0x00000000       0x10 ./Krusty/KPlate.o
 .debug_macro   0x00000000       0x2e ./Krusty/KPlate.o
 .debug_macro   0x00000000       0xa2 ./Krusty/KPlate.o
 .debug_macro   0x00000000      0x20e ./Krusty/KPlate.o
 .debug_macro   0x00000000       0x18 ./Krusty/KPlate.o
 .debug_macro   0x00000000       0x42 ./Krusty/KPlate.o
 .debug_macro   0x00000000      0xd39 ./Krusty/KPlate.o
 .debug_macro   0x00000000     0x822c ./Krusty/KPlate.o
 .debug_macro   0x00000000      0x576 ./Krusty/KPlate.o
 .debug_macro   0x00000000       0x82 ./Krusty/KPlate.o
 .debug_macro   0x00000000       0x35 ./Krusty/KPlate.o
 .debug_macro   0x00000000       0x10 ./Krusty/KPlate.o
 .debug_macro   0x00000000       0x16 ./Krusty/KPlate.o
 .debug_macro   0x00000000       0x64 ./Krusty/KPlate.o
 .debug_macro   0x00000000       0xac ./Krusty/KPlate.o
 .debug_macro   0x00000000       0x7c ./Krusty/KPlate.o
 .debug_macro   0x00000000      0x73b ./Krusty/KPlate.o
 .debug_macro   0x00000000       0x4c ./Krusty/KPlate.o
 .debug_macro   0x00000000       0x28 ./Krusty/KPlate.o
 .debug_macro   0x00000000      0x460 ./Krusty/KPlate.o
 .debug_macro   0x00000000       0x65 ./Krusty/KPlate.o
 .debug_macro   0x00000000       0x5e ./Krusty/KPlate.o
 .debug_macro   0x00000000       0xb8 ./Krusty/KPlate.o
 .debug_macro   0x00000000       0x5e ./Krusty/KPlate.o
 .debug_macro   0x00000000       0x52 ./Krusty/KPlate.o
 .group         0x00000000        0x8 ./Krusty/template.o
 .debug_macro   0x00000000      0x7fc ./Krusty/template.o
 .group         0x00000000        0x8 ./Can_msg_processing.o
 .group         0x00000000        0x8 ./Can_msg_processing.o
 .group         0x00000000        0x8 ./Can_msg_processing.o
 .group         0x00000000        0x8 ./Can_msg_processing.o
 .group         0x00000000        0x8 ./Can_msg_processing.o
 .group         0x00000000        0x8 ./Can_msg_processing.o
 .group         0x00000000        0x8 ./Can_msg_processing.o
 .group         0x00000000        0x8 ./Can_msg_processing.o
 .group         0x00000000        0x8 ./Can_msg_processing.o
 .group         0x00000000        0x8 ./Can_msg_processing.o
 .group         0x00000000        0x8 ./Can_msg_processing.o
 .group         0x00000000        0x8 ./Can_msg_processing.o
 .group         0x00000000        0x8 ./Can_msg_processing.o
 .group         0x00000000        0x8 ./Can_msg_processing.o
 .group         0x00000000        0x8 ./Can_msg_processing.o
 .group         0x00000000        0x8 ./Can_msg_processing.o
 .group         0x00000000        0x8 ./Can_msg_processing.o
 .group         0x00000000        0x8 ./Can_msg_processing.o
 .group         0x00000000        0x8 ./Can_msg_processing.o
 .group         0x00000000        0x8 ./Can_msg_processing.o
 .group         0x00000000        0x8 ./Can_msg_processing.o
 .group         0x00000000        0x8 ./Can_msg_processing.o
 .group         0x00000000        0x8 ./Can_msg_processing.o
 .group         0x00000000        0x8 ./Can_msg_processing.o
 .group         0x00000000        0x8 ./Can_msg_processing.o
 .group         0x00000000        0x8 ./Can_msg_processing.o
 .debug_macro   0x00000000      0x7fc ./Can_msg_processing.o
 .debug_macro   0x00000000       0x69 ./Can_msg_processing.o
 .debug_macro   0x00000000       0x3b ./Can_msg_processing.o
 .debug_macro   0x00000000       0x3a ./Can_msg_processing.o
 .debug_macro   0x00000000       0x10 ./Can_msg_processing.o
 .debug_macro   0x00000000       0x2e ./Can_msg_processing.o
 .debug_macro   0x00000000       0xa2 ./Can_msg_processing.o
 .debug_macro   0x00000000      0x20e ./Can_msg_processing.o
 .debug_macro   0x00000000       0x18 ./Can_msg_processing.o
 .debug_macro   0x00000000       0x42 ./Can_msg_processing.o
 .debug_macro   0x00000000      0xd39 ./Can_msg_processing.o
 .debug_macro   0x00000000     0x822c ./Can_msg_processing.o
 .debug_macro   0x00000000      0x576 ./Can_msg_processing.o
 .debug_macro   0x00000000       0x82 ./Can_msg_processing.o
 .debug_macro   0x00000000       0x35 ./Can_msg_processing.o
 .debug_macro   0x00000000       0x10 ./Can_msg_processing.o
 .debug_macro   0x00000000       0x16 ./Can_msg_processing.o
 .debug_macro   0x00000000       0x64 ./Can_msg_processing.o
 .debug_macro   0x00000000       0xac ./Can_msg_processing.o
 .debug_macro   0x00000000       0x7c ./Can_msg_processing.o
 .debug_macro   0x00000000      0x460 ./Can_msg_processing.o
 .debug_macro   0x00000000      0x73b ./Can_msg_processing.o
 .debug_macro   0x00000000       0x4c ./Can_msg_processing.o
 .debug_macro   0x00000000       0x28 ./Can_msg_processing.o
 .debug_macro   0x00000000       0x5e ./Can_msg_processing.o
 .debug_macro   0x00000000       0x52 ./Can_msg_processing.o
 .group         0x00000000        0x8 ./act_queue_utils.o
 .group         0x00000000        0x8 ./act_queue_utils.o
 .group         0x00000000        0x8 ./act_queue_utils.o
 .group         0x00000000        0x8 ./act_queue_utils.o
 .group         0x00000000        0x8 ./act_queue_utils.o
 .group         0x00000000        0x8 ./act_queue_utils.o
 .group         0x00000000        0x8 ./act_queue_utils.o
 .group         0x00000000        0x8 ./act_queue_utils.o
 .group         0x00000000        0x8 ./act_queue_utils.o
 .group         0x00000000        0x8 ./act_queue_utils.o
 .group         0x00000000        0x8 ./act_queue_utils.o
 .group         0x00000000        0x8 ./act_queue_utils.o
 .group         0x00000000        0x8 ./act_queue_utils.o
 .group         0x00000000        0x8 ./act_queue_utils.o
 .group         0x00000000        0x8 ./act_queue_utils.o
 .group         0x00000000        0x8 ./act_queue_utils.o
 .group         0x00000000        0x8 ./act_queue_utils.o
 .group         0x00000000        0x8 ./act_queue_utils.o
 .group         0x00000000        0x8 ./act_queue_utils.o
 .group         0x00000000        0x8 ./act_queue_utils.o
 .group         0x00000000        0x8 ./act_queue_utils.o
 .group         0x00000000        0x8 ./act_queue_utils.o
 .group         0x00000000        0x8 ./act_queue_utils.o
 .group         0x00000000        0x8 ./act_queue_utils.o
 .group         0x00000000        0x8 ./act_queue_utils.o
 .group         0x00000000        0x8 ./act_queue_utils.o
 .group         0x00000000        0x8 ./act_queue_utils.o
 .debug_macro   0x00000000      0x7fc ./act_queue_utils.o
 .debug_macro   0x00000000       0x69 ./act_queue_utils.o
 .debug_macro   0x00000000       0x3b ./act_queue_utils.o
 .debug_macro   0x00000000       0x3a ./act_queue_utils.o
 .debug_macro   0x00000000       0x10 ./act_queue_utils.o
 .debug_macro   0x00000000       0x2e ./act_queue_utils.o
 .debug_macro   0x00000000       0xa2 ./act_queue_utils.o
 .debug_macro   0x00000000      0x20e ./act_queue_utils.o
 .debug_macro   0x00000000       0x18 ./act_queue_utils.o
 .debug_macro   0x00000000       0x42 ./act_queue_utils.o
 .debug_macro   0x00000000      0xd39 ./act_queue_utils.o
 .debug_macro   0x00000000     0x822c ./act_queue_utils.o
 .debug_macro   0x00000000      0x576 ./act_queue_utils.o
 .debug_macro   0x00000000       0x82 ./act_queue_utils.o
 .debug_macro   0x00000000       0x35 ./act_queue_utils.o
 .debug_macro   0x00000000       0x10 ./act_queue_utils.o
 .debug_macro   0x00000000       0x16 ./act_queue_utils.o
 .debug_macro   0x00000000       0x64 ./act_queue_utils.o
 .debug_macro   0x00000000       0xac ./act_queue_utils.o
 .debug_macro   0x00000000       0x7c ./act_queue_utils.o
 .debug_macro   0x00000000      0x73b ./act_queue_utils.o
 .debug_macro   0x00000000       0x4c ./act_queue_utils.o
 .debug_macro   0x00000000       0x28 ./act_queue_utils.o
 .debug_macro   0x00000000      0x460 ./act_queue_utils.o
 .debug_macro   0x00000000       0x65 ./act_queue_utils.o
 .debug_macro   0x00000000       0x5e ./act_queue_utils.o
 .debug_macro   0x00000000       0x52 ./act_queue_utils.o
 .group         0x00000000        0x8 ./clock.o
 .group         0x00000000        0x8 ./clock.o
 .group         0x00000000        0x8 ./clock.o
 .group         0x00000000        0x8 ./clock.o
 .group         0x00000000        0x8 ./clock.o
 .group         0x00000000        0x8 ./clock.o
 .group         0x00000000        0x8 ./clock.o
 .group         0x00000000        0x8 ./clock.o
 .group         0x00000000        0x8 ./clock.o
 .group         0x00000000        0x8 ./clock.o
 .group         0x00000000        0x8 ./clock.o
 .group         0x00000000        0x8 ./clock.o
 .group         0x00000000        0x8 ./clock.o
 .group         0x00000000        0x8 ./clock.o
 .group         0x00000000        0x8 ./clock.o
 .group         0x00000000        0x8 ./clock.o
 .group         0x00000000        0x8 ./clock.o
 .group         0x00000000        0x8 ./clock.o
 .group         0x00000000        0x8 ./clock.o
 .group         0x00000000        0x8 ./clock.o
 .group         0x00000000        0x8 ./clock.o
 .group         0x00000000        0x8 ./clock.o
 .group         0x00000000        0x8 ./clock.o
 .group         0x00000000        0x8 ./clock.o
 .group         0x00000000        0x8 ./clock.o
 .debug_macro   0x00000000      0x7fc ./clock.o
 .debug_macro   0x00000000       0x69 ./clock.o
 .debug_macro   0x00000000       0x3b ./clock.o
 .debug_macro   0x00000000       0x3a ./clock.o
 .debug_macro   0x00000000       0x10 ./clock.o
 .debug_macro   0x00000000       0x2e ./clock.o
 .debug_macro   0x00000000       0xa2 ./clock.o
 .debug_macro   0x00000000      0x20e ./clock.o
 .debug_macro   0x00000000       0x18 ./clock.o
 .debug_macro   0x00000000       0x42 ./clock.o
 .debug_macro   0x00000000      0xd39 ./clock.o
 .debug_macro   0x00000000     0x822c ./clock.o
 .debug_macro   0x00000000      0x576 ./clock.o
 .debug_macro   0x00000000       0x82 ./clock.o
 .debug_macro   0x00000000       0x35 ./clock.o
 .debug_macro   0x00000000       0x10 ./clock.o
 .debug_macro   0x00000000       0x16 ./clock.o
 .debug_macro   0x00000000       0x64 ./clock.o
 .debug_macro   0x00000000       0xac ./clock.o
 .debug_macro   0x00000000       0x7c ./clock.o
 .debug_macro   0x00000000      0x73b ./clock.o
 .debug_macro   0x00000000       0x4c ./clock.o
 .debug_macro   0x00000000       0x5e ./clock.o
 .debug_macro   0x00000000       0xb8 ./clock.o
 .debug_macro   0x00000000       0x46 ./clock.o
 .group         0x00000000        0x8 ./main.o
 .group         0x00000000        0x8 ./main.o
 .group         0x00000000        0x8 ./main.o
 .group         0x00000000        0x8 ./main.o
 .group         0x00000000        0x8 ./main.o
 .group         0x00000000        0x8 ./main.o
 .group         0x00000000        0x8 ./main.o
 .group         0x00000000        0x8 ./main.o
 .group         0x00000000        0x8 ./main.o
 .group         0x00000000        0x8 ./main.o
 .group         0x00000000        0x8 ./main.o
 .group         0x00000000        0x8 ./main.o
 .group         0x00000000        0x8 ./main.o
 .group         0x00000000        0x8 ./main.o
 .group         0x00000000        0x8 ./main.o
 .group         0x00000000        0x8 ./main.o
 .group         0x00000000        0x8 ./main.o
 .group         0x00000000        0x8 ./main.o
 .group         0x00000000        0x8 ./main.o
 .group         0x00000000        0x8 ./main.o
 .group         0x00000000        0x8 ./main.o
 .group         0x00000000        0x8 ./main.o
 .group         0x00000000        0x8 ./main.o
 .group         0x00000000        0x8 ./main.o
 .group         0x00000000        0x8 ./main.o
 .group         0x00000000        0x8 ./main.o
 .group         0x00000000        0x8 ./main.o
 .group         0x00000000        0x8 ./main.o
 .debug_macro   0x00000000      0x7fc ./main.o
 .debug_macro   0x00000000       0x69 ./main.o
 .debug_macro   0x00000000       0x3b ./main.o
 .debug_macro   0x00000000       0x3a ./main.o
 .debug_macro   0x00000000       0x10 ./main.o
 .debug_macro   0x00000000       0x2e ./main.o
 .debug_macro   0x00000000       0xa2 ./main.o
 .debug_macro   0x00000000      0x20e ./main.o
 .debug_macro   0x00000000       0x18 ./main.o
 .debug_macro   0x00000000       0x42 ./main.o
 .debug_macro   0x00000000      0xd39 ./main.o
 .debug_macro   0x00000000     0x822c ./main.o
 .debug_macro   0x00000000      0x576 ./main.o
 .debug_macro   0x00000000       0x82 ./main.o
 .debug_macro   0x00000000       0x35 ./main.o
 .debug_macro   0x00000000       0x10 ./main.o
 .debug_macro   0x00000000       0x16 ./main.o
 .debug_macro   0x00000000       0x64 ./main.o
 .debug_macro   0x00000000       0xac ./main.o
 .debug_macro   0x00000000       0x7c ./main.o
 .debug_macro   0x00000000      0x73b ./main.o
 .debug_macro   0x00000000       0x4c ./main.o
 .debug_macro   0x00000000       0x58 ./main.o
 .debug_macro   0x00000000       0x28 ./main.o
 .debug_macro   0x00000000       0x65 ./main.o
 .debug_macro   0x00000000      0x460 ./main.o
 .debug_macro   0x00000000       0x5e ./main.o
 .debug_macro   0x00000000       0xb8 ./main.o
 .group         0x00000000        0x8 ./maths_home.o
 .group         0x00000000        0x8 ./maths_home.o
 .group         0x00000000        0x8 ./maths_home.o
 .group         0x00000000        0x8 ./maths_home.o
 .group         0x00000000        0x8 ./maths_home.o
 .group         0x00000000        0x8 ./maths_home.o
 .group         0x00000000        0x8 ./maths_home.o
 .group         0x00000000        0x8 ./maths_home.o
 .group         0x00000000        0x8 ./maths_home.o
 .group         0x00000000        0x8 ./maths_home.o
 .group         0x00000000        0x8 ./maths_home.o
 .group         0x00000000        0x8 ./maths_home.o
 .group         0x00000000        0x8 ./maths_home.o
 .group         0x00000000        0x8 ./maths_home.o
 .group         0x00000000        0x8 ./maths_home.o
 .group         0x00000000        0x8 ./maths_home.o
 .group         0x00000000        0x8 ./maths_home.o
 .group         0x00000000        0x8 ./maths_home.o
 .group         0x00000000        0x8 ./maths_home.o
 .group         0x00000000        0x8 ./maths_home.o
 .group         0x00000000        0x8 ./maths_home.o
 .group         0x00000000        0x8 ./maths_home.o
 .group         0x00000000        0x8 ./maths_home.o
 .group         0x00000000        0x8 ./maths_home.o
 .group         0x00000000        0x8 ./maths_home.o
 .debug_macro   0x00000000      0x7fc ./maths_home.o
 .debug_macro   0x00000000       0x69 ./maths_home.o
 .debug_macro   0x00000000       0x3b ./maths_home.o
 .debug_macro   0x00000000       0x3a ./maths_home.o
 .debug_macro   0x00000000       0x10 ./maths_home.o
 .debug_macro   0x00000000       0x2e ./maths_home.o
 .debug_macro   0x00000000       0xa2 ./maths_home.o
 .debug_macro   0x00000000      0x20e ./maths_home.o
 .debug_macro   0x00000000       0x18 ./maths_home.o
 .debug_macro   0x00000000       0x42 ./maths_home.o
 .debug_macro   0x00000000      0xd39 ./maths_home.o
 .debug_macro   0x00000000     0x822c ./maths_home.o
 .debug_macro   0x00000000      0x576 ./maths_home.o
 .debug_macro   0x00000000       0x82 ./maths_home.o
 .debug_macro   0x00000000       0x35 ./maths_home.o
 .debug_macro   0x00000000       0x10 ./maths_home.o
 .debug_macro   0x00000000       0x16 ./maths_home.o
 .debug_macro   0x00000000       0x64 ./maths_home.o
 .debug_macro   0x00000000       0xac ./maths_home.o
 .debug_macro   0x00000000       0x7c ./maths_home.o
 .debug_macro   0x00000000       0x3a ./maths_home.o
 .debug_macro   0x00000000       0x52 ./maths_home.o
 .debug_macro   0x00000000       0x19 ./maths_home.o
 .debug_macro   0x00000000      0x16d ./maths_home.o
 .group         0x00000000        0x8 ./queue.o
 .group         0x00000000        0x8 ./queue.o
 .group         0x00000000        0x8 ./queue.o
 .group         0x00000000        0x8 ./queue.o
 .group         0x00000000        0x8 ./queue.o
 .group         0x00000000        0x8 ./queue.o
 .group         0x00000000        0x8 ./queue.o
 .group         0x00000000        0x8 ./queue.o
 .group         0x00000000        0x8 ./queue.o
 .group         0x00000000        0x8 ./queue.o
 .group         0x00000000        0x8 ./queue.o
 .group         0x00000000        0x8 ./queue.o
 .group         0x00000000        0x8 ./queue.o
 .group         0x00000000        0x8 ./queue.o
 .group         0x00000000        0x8 ./queue.o
 .group         0x00000000        0x8 ./queue.o
 .group         0x00000000        0x8 ./queue.o
 .group         0x00000000        0x8 ./queue.o
 .group         0x00000000        0x8 ./queue.o
 .group         0x00000000        0x8 ./queue.o
 .group         0x00000000        0x8 ./queue.o
 .group         0x00000000        0x8 ./queue.o
 .group         0x00000000        0x8 ./queue.o
 .group         0x00000000        0x8 ./queue.o
 .group         0x00000000        0x8 ./queue.o
 .group         0x00000000        0x8 ./queue.o
 .group         0x00000000        0x8 ./queue.o
 .debug_macro   0x00000000      0x7fc ./queue.o
 .debug_macro   0x00000000       0x69 ./queue.o
 .debug_macro   0x00000000       0x3b ./queue.o
 .debug_macro   0x00000000       0x3a ./queue.o
 .debug_macro   0x00000000       0x10 ./queue.o
 .debug_macro   0x00000000       0x2e ./queue.o
 .debug_macro   0x00000000       0xa2 ./queue.o
 .debug_macro   0x00000000      0x20e ./queue.o
 .debug_macro   0x00000000       0x18 ./queue.o
 .debug_macro   0x00000000       0x42 ./queue.o
 .debug_macro   0x00000000      0xd39 ./queue.o
 .debug_macro   0x00000000     0x822c ./queue.o
 .debug_macro   0x00000000      0x576 ./queue.o
 .debug_macro   0x00000000       0x82 ./queue.o
 .debug_macro   0x00000000       0x35 ./queue.o
 .debug_macro   0x00000000       0x10 ./queue.o
 .debug_macro   0x00000000       0x16 ./queue.o
 .debug_macro   0x00000000       0x64 ./queue.o
 .debug_macro   0x00000000       0xac ./queue.o
 .debug_macro   0x00000000       0x7c ./queue.o
 .debug_macro   0x00000000      0x73b ./queue.o
 .debug_macro   0x00000000       0x4c ./queue.o
 .debug_macro   0x00000000       0x28 ./queue.o
 .debug_macro   0x00000000       0x5e ./queue.o
 .debug_macro   0x00000000       0xb8 ./queue.o
 .debug_macro   0x00000000       0x5e ./queue.o

Memory Configuration

Name             Origin             Length             Attributes
RAM              0x20000000         0x00020000         xrw
CCMRAM           0x10000000         0x00010000         xrw
FLASH            0x08000000         0x00100000         xr
FLASHB1          0x00000000         0x00000000         xr
EXTMEMB0         0x00000000         0x00000000         xr
EXTMEMB1         0x00000000         0x00000000         xr
EXTMEMB2         0x00000000         0x00000000         xr
EXTMEMB3         0x00000000         0x00000000         xr
MEMORY_ARRAY     0x20002000         0x00000020         xrw
*default*        0x00000000         0xffffffff

Linker script and memory map

LOAD ./Tiny/TActManager.o
LOAD ./Tiny/TBall_inflater.o
LOAD ./Tiny/TCandle_color_sensor.o
LOAD ./Tiny/THammer.o
LOAD ./Tiny/TPlier.o
LOAD ./QS/impl/QS_uart_stm32f4.o
LOAD ./QS/QS_CapteurCouleurCW.o
LOAD ./QS/QS_DCMotor2.o
LOAD ./QS/QS_Step_motor.o
LOAD ./QS/QS_adc.o
LOAD ./QS/QS_ax12.o
LOAD ./QS/QS_buffer_fifo.o
LOAD ./QS/QS_buttons.o
LOAD ./QS/QS_can.o
LOAD ./QS/QS_can_over_uart.o
LOAD ./QS/QS_can_over_xbee.o
LOAD ./QS/QS_configCheck.o
LOAD ./QS/QS_external_it.o
LOAD ./QS/QS_global_vars.o
LOAD ./QS/QS_i2c.o
LOAD ./QS/QS_outputlog.o
LOAD ./QS/QS_ports.o
LOAD ./QS/QS_pwm.o
LOAD ./QS/QS_qei.o
LOAD ./QS/QS_rf.o
LOAD ./QS/QS_servo.o
LOAD ./QS/QS_spi.o
LOAD ./QS/QS_sys.o
LOAD ./QS/QS_timer.o
LOAD ./QS/QS_trap_handler.o
LOAD ./QS/QS_uart.o
LOAD ./QS/QS_watchdog.o
LOAD ./QS/QS_who_am_i.o
LOAD ./QS/startup_stm32f40xx.o
LOAD ./Krusty/KActManager.o
LOAD ./Krusty/KBall_launcher.o
LOAD ./Krusty/KBall_sorter.o
LOAD ./Krusty/KFruit.o
LOAD ./Krusty/KLift.o
LOAD ./Krusty/KPlate.o
LOAD ./Krusty/template.o
LOAD ./Can_msg_processing.o
LOAD ./act_queue_utils.o
LOAD ./clock.o
LOAD ./main.o
LOAD ./maths_home.o
LOAD ./queue.o
LOAD ../stm32f4xx\libstm32f4xx.a
START GROUP
LOAD c:/program files (x86)/eclipse-arm-eseo/gcc-arm-none-eabi-4_7-2013q2-20130614-win32/gnu tools arm embedded/4.7 2013q2/bin/../lib/gcc/arm-none-eabi/4.7.4/armv7e-m\libgcc.a
LOAD c:/program files (x86)/eclipse-arm-eseo/gcc-arm-none-eabi-4_7-2013q2-20130614-win32/gnu tools arm embedded/4.7 2013q2/bin/../lib/gcc/arm-none-eabi/4.7.4/../../../../arm-none-eabi/lib/armv7e-m\libg.a
LOAD c:/program files (x86)/eclipse-arm-eseo/gcc-arm-none-eabi-4_7-2013q2-20130614-win32/gnu tools arm embedded/4.7 2013q2/bin/../lib/gcc/arm-none-eabi/4.7.4/../../../../arm-none-eabi/lib/armv7e-m\libc.a
END GROUP
                0x00000400                __Stack_Size = 0x400
                0x00000400                PROVIDE (_Stack_Size, __Stack_Size)
                0x2001fc00                __Stack_Init = (_estack - __Stack_Size)
                0x2001fc00                PROVIDE (_Stack_Init, __Stack_Init)
                0x00000100                _Minimum_Stack_Size = 0x100
                0x20020000                _estack = 0x20020000

.isr_vector     0x08000000      0x188
                0x08000000                . = ALIGN (0x4)
 *(.isr_vector)
 .isr_vector    0x08000000      0x188 ./QS/startup_stm32f40xx.o
                0x08000000                g_pfnVectors
                0x08000188                . = ALIGN (0x4)

.flashtext      0x08000188        0x0
                0x08000188                . = ALIGN (0x4)
 *(.flashtext)
                0x08000188                . = ALIGN (0x4)

.text           0x08000188    0x18948
                0x08000188                . = ALIGN (0x4)
 *(.text)
 .text          0x08000188        0x0 ./Tiny/TActManager.o
 .text          0x08000188        0x0 ./Tiny/TBall_inflater.o
 .text          0x08000188        0x0 ./Tiny/TCandle_color_sensor.o
 .text          0x08000188        0x0 ./Tiny/THammer.o
 .text          0x08000188        0x0 ./Tiny/TPlier.o
 .text          0x08000188      0x69c ./QS/impl/QS_uart_stm32f4.o
                0x080001fc                UART_IMPL_init
                0x08000238                UART_IMPL_init_ex
                0x080003dc                UART_IMPL_write
                0x08000410                UART_IMPL_read
                0x08000440                UART_IMPL_isRxEmpty
                0x0800047c                UART_IMPL_isTxFull
                0x080004b8                UART_IMPL_isIdle
                0x080004ec                UART_IMPL_hasOverflow
                0x08000520                UART_IMPL_hasFrameError
                0x08000578                UART_IMPL_resetErrors
                0x080005bc                UART_IMPL_setRxItPaused
                0x0800061c                UART_IMPL_setTxItPaused
                0x08000640                UART_IMPL_setRxItEnabled
                0x08000678                UART_IMPL_setTxItEnabled
                0x080006b0                UART_IMPL_ackRxIt
                0x080006c4                UART_IMPL_ackTxIt
                0x080006d8                UART_IMPL_isRxItTriggered
                0x08000700                UART_IMPL_isTxItTriggered
                0x08000728                UART1_RX_Interrupt
                0x08000734                UART1_TX_Interrupt
                0x08000740                UART2_RX_Interrupt
                0x0800074c                UART2_TX_Interrupt
                0x08000758                UART3_RX_Interrupt
                0x08000764                UART3_TX_Interrupt
                0x080007e8                USART3_IRQHandler
 .text          0x08000824        0x0 ./QS/QS_CapteurCouleurCW.o
 .text          0x08000824      0x780 ./QS/QS_DCMotor2.o
                0x08000824                DCM_init
                0x08000860                DCM_get_state
                0x08000898                DCM_config
                0x08000a20                DCM_goToPos
                0x08000a6c                DCM_setPosValue
                0x08000ad0                DCM_getPosValue
                0x08000b14                DCM_setCoefs
                0x08000b74                DCM_getCoefs
                0x08000bd4                DCM_stop
                0x08000c28                DCM_stop_all
                0x08000c54                DCM_restart
                0x08000cb0                DCM_restart_all
                0x08000cdc                _T1Interrupt
 .text          0x08000fa4        0x0 ./QS/QS_Step_motor.o
 .text          0x08000fa4      0x1cc ./QS/QS_adc.o
                0x08000fa4                ADC_init
                0x08001148                ADC_getValue
 .text          0x08001170     0x275c ./QS/QS_ax12.o
                0x0800264c                USART2_IRQHandler
                0x080026fc                _T2Interrupt
                0x0800279c                AX12_init
                0x08002878                AX12_is_ready
                0x08002898                AX12_get_last_error
                0x080028d0                AX12_reset_last_error
                0x080028ec                AX12_is_buffer_full
                0x080028fc                AX12_start_command_block
                0x08002914                AX12_end_command_block
                0x0800292c                AX12_config_is_locked
                0x0800295c                AX12_config_get_model_number
                0x08002984                AX12_config_get_firmware_version
                0x080029ac                AX12_config_get_return_delay_time
                0x080029d8                AX12_config_get_minimal_angle
                0x08002a14                AX12_config_get_maximal_angle
                0x08002a50                AX12_config_get_temperature_limit
                0x08002a78                AX12_config_get_lowest_voltage
                0x08002aa0                AX12_config_get_highest_voltage
                0x08002ac8                AX12_config_get_maximum_torque
                0x08002b28                AX12_config_get_status_return_mode
                0x08002b50                AX12_config_get_error_before_led
                0x08002b78                AX12_config_get_error_before_shutdown
                0x08002ba0                AX12_config_lock
                0x08002bc8                AX12_config_set_return_delay_time
                0x08002bfc                AX12_config_set_minimal_angle
                0x08002c50                AX12_config_set_maximal_angle
                0x08002cb0                AX12_config_set_temperature_limit
                0x08002cdc                AX12_config_set_lowest_voltage
                0x08002d08                AX12_config_set_highest_voltage
                0x08002d34                AX12_config_set_maximum_torque_percentage
                0x08002d7c                AX12_config_set_status_return_mode
                0x08002da8                AX12_config_set_error_before_led
                0x08002dd4                AX12_config_set_error_before_shutdown
                0x08002e00                AX12_is_wheel_mode_enabled
                0x08002e34                AX12_is_torque_enabled
                0x08002e64                AX12_is_led_enabled
                0x08002e94                AX12_get_torque_response
                0x08002fbc                AX12_get_position
                0x08002ff8                AX12_get_move_to_position_speed
                0x080030a0                AX12_get_speed_percentage
                0x0800314c                AX12_get_torque_limit
                0x08003188                AX12_get_punch_torque_percentage
                0x080031c4                AX12_get_load_percentage
                0x08003238                AX12_get_voltage
                0x08003260                AX12_get_temperature
                0x08003288                AX12_is_instruction_prepared
                0x080032b8                AX12_is_moving
                0x080032e8                AX12_set_wheel_mode_enabled
                0x080034b4                AX12_set_torque_enabled
                0x080034e8                AX12_set_led_enabled
                0x0800351c                AX12_set_torque_response
                0x08003690                AX12_set_position
                0x080036e4                AX12_set_move_to_position_speed
                0x08003770                AX12_set_speed_percentage
                0x08003824                AX12_set_torque_limit
                0x08003878                AX12_set_punch_torque_percentage
 .text          0x080038cc        0x0 ./QS/QS_buffer_fifo.o
 .text          0x080038cc      0x290 ./QS/QS_buttons.o
                0x080038cc                BUTTONS_init
                0x08003918                BUTTONS_define_actions
                0x0800396c                BUTTONS_update
                0x08003b08                BUTTONS_process_it
 .text          0x08003b5c      0x8f4 ./QS/QS_can.o
                0x08003bd0                CAN_reinit
                0x08003d84                CAN_init
                0x08003dcc                CAN_data_ready
                0x08003de4                CAN_set_send_callback
                0x08003e04                CAN_send
                0x08003ea0                CAN_send_sid
                0x08003f84                CAN_get_next_msg
                0x0800407c                CAN_set_direct_treatment_function
                0x0800409c                CAN_onMsgReceived
                0x08004158                CAN1_RX0_IRQHandler
                0x08004174                CAN1_RX1_IRQHandler
                0x08004190                CAN1_SCE_IRQHandler
 .text          0x08004450      0x2c4 ./QS/QS_can_over_uart.o
                0x08004450                uartToCANmsg
                0x08004654                CANmsgToU1tx
                0x080046e8                u1rxToCANmsg
 .text          0x08004714        0x0 ./QS/QS_can_over_xbee.o
 .text          0x08004714        0x0 ./QS/QS_configCheck.o
 .text          0x08004714      0x29c ./QS/QS_external_it.o
                0x08004788                EXTERNALIT_init
                0x080047cc                EXTERNALIT_configure
                0x0800485c                EXTERNALIT_set_edge
                0x080048c0                EXTERNALIT_set_priority
                0x0800491c                EXTERNALIT_disable
                0x08004954                EXTERNALIT_set_it_enabled
 .text          0x080049b0        0x0 ./QS/QS_global_vars.o
 .text          0x080049b0        0x0 ./QS/QS_i2c.o
 .text          0x080049b0       0x90 ./QS/QS_outputlog.o
                0x080049b0                OUTPUTLOG_printf
                0x080049f0                OUTPUTLOG_set_level
                0x08004a28                OUTPUTLOG_get_level
 .text          0x08004a40      0x63c ./QS/QS_ports.o
                0x08004a40                PORTS_init
                0x08004bc4                PORTS_adc_init
                0x08004c9c                PORTS_pwm_init
                0x08004d28                PORTS_uarts_init
                0x08004e4c                PORTS_qei_init
                0x08004f24                PORTS_spi_init
                0x08004fd0                PORTS_i2c_init
                0x08005000                PORTS_can_init
 .text          0x0800507c      0x1dc ./QS/QS_pwm.o
                0x0800507c                PWM_init
                0x080051b8                PWM_run
                0x08005238                PWM_stop
 .text          0x08005258      0x11c ./QS/QS_qei.o
                0x08005258                QEI_init
                0x080052f4                QEI1_get_count
                0x08005318                QEI1_set_count
                0x0800533c                QEI2_get_count
                0x08005354                QEI2_set_count
 .text          0x08005374        0x0 ./QS/QS_rf.o
 .text          0x08005374        0x0 ./QS/QS_servo.o
 .text          0x08005374        0x0 ./QS/QS_spi.o
 .text          0x08005374      0x4cc ./QS/QS_sys.o
                0x08005374                SYS_init
                0x0800548c                _exit
                0x080054ac                _close
                0x080054c4                _execve
                0x080054ec                _fork
                0x08005504                _fstat
                0x08005528                _getpid
                0x08005538                _isatty
                0x0800556c                _kill
                0x08005590                _link
                0x080055b4                _lseek
                0x080055d0                _sbrk
                0x0800566c                _read
                0x080056f8                _stat
                0x0800571c                _times
                0x08005734                _unlink
                0x08005758                _wait
                0x0800577c                _write
 .text          0x08005840      0x7a8 ./QS/QS_timer.o
                0x080058e4                _T3Interrupt
                0x08005914                TIMER_init
                0x08005aec                TIMER_run
                0x08005ba0                TIMER_run_us
                0x08005c4c                TIMER_stop
                0x08005c68                TIMER_disableInt
                0x08005ce0                TIMER_enableInt
                0x08005d58                TIMER1_run
                0x08005d7c                TIMER1_run_us
                0x08005da0                TIMER1_stop
                0x08005db4                TIMER1_disableInt
                0x08005dc8                TIMER1_enableInt
                0x08005ddc                TIMER2_run
                0x08005e00                TIMER2_run_us
                0x08005e24                TIMER2_stop
                0x08005e38                TIMER2_disableInt
                0x08005e4c                TIMER2_enableInt
                0x08005e60                TIMER3_run
                0x08005e84                TIMER3_run_us
                0x08005ea8                TIMER3_stop
                0x08005ebc                TIMER3_disableInt
                0x08005ed0                TIMER3_enableInt
                0x08005ee4                TIMER4_run
                0x08005f08                TIMER4_run_us
                0x08005f2c                TIMER4_stop
                0x08005f40                TIMER4_disableInt
                0x08005f54                TIMER4_enableInt
                0x08005f68                TIM1_TRG_COM_TIM11_IRQHandler
                0x08005f88                TIM8_BRK_TIM12_IRQHandler
                0x08005fa8                TIM8_UP_TIM13_IRQHandler
                0x08005fc8                TIM8_TRG_COM_TIM14_IRQHandler
 .text          0x08005fe8      0x454 ./QS/QS_trap_handler.o
                0x08005fe8                dump_trap_info
                0x080063c8                HardFault_Handler
                0x080063c8                Fault_Handler
                0x080063c8                MemManage_Handler
                0x080063c8                UsageFault_Handler
                0x080063c8                BusFault_Handler
                0x080063dc                NMI_Handler
                0x080063e8                SVC_Handler
                0x08006400                DebugMon_Handler
                0x08006418                PendSV_Handler
                0x08006430                SysTick_Handler
 .text          0x0800643c      0x3a4 ./QS/QS_uart.o
                0x080064b0                UART_init
                0x08006568                UART_set_baudrate
                0x080065e8                UART1_data_ready
                0x08006600                UART1_get_next_msg
                0x080066a0                UART1_putc
                0x080066dc                USART1_IRQHandler
 .text          0x080067e0        0x0 ./QS/QS_watchdog.o
 .text          0x080067e0       0x74 ./QS/QS_who_am_i.o
                0x080067e0                QS_WHO_AM_I_find
                0x0800683c                QS_WHO_AM_I_get
 .text          0x08006854       0x14 ./QS/startup_stm32f40xx.o
 .text          0x08006868      0x248 ./Krusty/KActManager.o
                0x08006868                ACTMGR_init
                0x08006878                ACTMGR_reset_act
                0x080068bc                ACTMGR_process_msg
                0x080068e4                ACTMGR_stop
 .text          0x08006ab0       0xfc ./Krusty/KBall_launcher.o
                0x08006ab0                BALLLAUNCHER_init
                0x08006af0                BALLLAUNCHER_stop
                0x08006b00                BALLLAUNCHER_set_speed
                0x08006b6c                BALLLAUNCHER_CAN_process_msg
 .text          0x08006bac      0x7c8 ./Krusty/KBall_sorter.o
                0x08006bac                BALLSORTER_init
                0x08006c84                BALLSORTER_stop
                0x08006c90                BALLSORTER_CAN_process_msg
                0x08006ed4                BALLSORTER_run_command
 .text          0x08007374      0x628 ./Krusty/KFruit.o
                0x08007374                FRUIT_init
                0x08007444                FRUIT_stop
                0x08007450                FRUIT_CAN_process_msg
                0x08007730                FRUIT_run_command
 .text          0x0800799c      0x9a8 ./Krusty/KLift.o
                0x0800799c                LIFT_init
                0x08007c20                LIFT_stop
                0x08007c38                LIFT_CAN_process_msg
                0x08007d58                LIFT_run_command
 .text          0x08008344      0x774 ./Krusty/KPlate.o
                0x08008344                PLATE_init
                0x080084a0                PLATE_stop
                0x080084b0                PLATE_CAN_process_msg
                0x080086d4                PLATE_run_command
 .text          0x08008ab8        0x0 ./Krusty/template.o
 .text          0x08008ab8       0xbc ./Can_msg_processing.o
                0x08008ab8                CAN_process_msg
 .text          0x08008b74      0x8bc ./act_queue_utils.o
                0x08008b74                ACTQ_push_operation_from_msg
                0x08008c40                ACTQ_sendResult
                0x08008cac                ACTQ_sendResultWithParam
                0x08008d18                ACTQ_sendResultWitExplicitLine
                0x08008d84                ACTQ_check_status_ax12
                0x08008f54                ACTQ_check_status_dcmotor
                0x0800900c                ACTQ_finish_SendResult
                0x08009050                ACTQ_finish_SendResultIfFail
                0x080090c0                ACTQ_finish_SendResultIfSuccess
                0x08009128                ACTQ_finish_SendNothing
 .text          0x08009430       0xac ./clock.o
                0x08009430                CLOCK_init
                0x08009468                _T4Interrupt
                0x080094c4                CLOCK_get_time
 .text          0x080094dc      0x4b0 ./main.o
                0x080094dc                main
 .text          0x0800998c       0xd8 ./maths_home.o
                0x0800998c                cos4096
                0x080099d4                sin4096
                0x08009a1c                atan4096
 .text          0x08009a64      0x8b0 ./queue.o
                0x08009a64                QUEUE_init
                0x08009b38                QUEUE_get_arg
                0x08009b88                QUEUE_get_act
                0x08009bd8                QUEUE_get_initial_time
                0x08009c08                QUEUE_create
                0x08009cd8                QUEUE_run
                0x08009d80                QUEUE_add
                0x08009e30                QUEUE_behead
                0x08009eac                QUEUE_next
                0x08009f04                QUEUE_set_error
                0x08009f64                QUEUE_has_error
                0x08009fb8                QUEUE_flush
                0x0800a024                QUEUE_flush_all
                0x0800a050                QUEUE_take_sem
                0x0800a104                QUEUE_give_sem
                0x0800a17c                QUEUE_sem_create
                0x0800a1fc                QUEUE_sem_delete
                0x0800a240                QUEUE_wait_synchro
 .text          0x0800a314        0x0 ../stm32f4xx\libstm32f4xx.a(misc.o)
 .text          0x0800a314        0x0 ../stm32f4xx\libstm32f4xx.a(stm32f4xx_adc.o)
 .text          0x0800a314        0x0 ../stm32f4xx\libstm32f4xx.a(stm32f4xx_can.o)
 .text          0x0800a314        0x0 ../stm32f4xx\libstm32f4xx.a(stm32f4xx_dma.o)
 .text          0x0800a314        0x0 ../stm32f4xx\libstm32f4xx.a(stm32f4xx_exti.o)
 .text          0x0800a314        0x0 ../stm32f4xx\libstm32f4xx.a(stm32f4xx_flash.o)
 .text          0x0800a314        0x0 ../stm32f4xx\libstm32f4xx.a(stm32f4xx_gpio.o)
 .text          0x0800a314        0x0 ../stm32f4xx\libstm32f4xx.a(stm32f4xx_rcc.o)
 .text          0x0800a314        0x0 ../stm32f4xx\libstm32f4xx.a(stm32f4xx_syscfg.o)
 .text          0x0800a314        0x0 ../stm32f4xx\libstm32f4xx.a(stm32f4xx_tim.o)
 .text          0x0800a314        0x0 ../stm32f4xx\libstm32f4xx.a(stm32f4xx_usart.o)
 .text          0x0800a314        0x0 ../stm32f4xx\libstm32f4xx.a(system_stm32f4xx.o)
 .text          0x0800a314      0x370 c:/program files (x86)/eclipse-arm-eseo/gcc-arm-none-eabi-4_7-2013q2-20130614-win32/gnu tools arm embedded/4.7 2013q2/bin/../lib/gcc/arm-none-eabi/4.7.4/armv7e-m\libgcc.a(_arm_addsubdf3.o)
                0x0800a314                __aeabi_drsub
                0x0800a31c                __aeabi_dsub
                0x0800a31c                __subdf3
                0x0800a320                __aeabi_dadd
                0x0800a320                __adddf3
                0x0800a598                __floatunsidf
                0x0800a598                __aeabi_ui2d
                0x0800a5b8                __floatsidf
                0x0800a5b8                __aeabi_i2d
                0x0800a5dc                __aeabi_f2d
                0x0800a5dc                __extendsfdf2
                0x0800a618                __floatundidf
                0x0800a618                __aeabi_ul2d
                0x0800a628                __floatdidf
                0x0800a628                __aeabi_l2d
 .text          0x0800a684      0x424 c:/program files (x86)/eclipse-arm-eseo/gcc-arm-none-eabi-4_7-2013q2-20130614-win32/gnu tools arm embedded/4.7 2013q2/bin/../lib/gcc/arm-none-eabi/4.7.4/armv7e-m\libgcc.a(_arm_muldivdf3.o)
                0x0800a684                __aeabi_dmul
                0x0800a684                __muldf3
                0x0800a8d8                __divdf3
                0x0800a8d8                __aeabi_ddiv
 .text          0x0800aaa8       0x50 c:/program files (x86)/eclipse-arm-eseo/gcc-arm-none-eabi-4_7-2013q2-20130614-win32/gnu tools arm embedded/4.7 2013q2/bin/../lib/gcc/arm-none-eabi/4.7.4/armv7e-m\libgcc.a(_arm_fixdfsi.o)
                0x0800aaa8                __aeabi_d2iz
                0x0800aaa8                __fixdfsi
 .text          0x0800aaf8        0x0 c:/program files (x86)/eclipse-arm-eseo/gcc-arm-none-eabi-4_7-2013q2-20130614-win32/gnu tools arm embedded/4.7 2013q2/bin/../lib/gcc/arm-none-eabi/4.7.4/../../../../arm-none-eabi/lib/armv7e-m\libg.a(lib_a-errno.o)
 .text          0x0800aaf8        0x0 c:/program files (x86)/eclipse-arm-eseo/gcc-arm-none-eabi-4_7-2013q2-20130614-win32/gnu tools arm embedded/4.7 2013q2/bin/../lib/gcc/arm-none-eabi/4.7.4/../../../../arm-none-eabi/lib/armv7e-m\libg.a(lib_a-impure.o)
 .text          0x0800aaf8        0x0 c:/program files (x86)/eclipse-arm-eseo/gcc-arm-none-eabi-4_7-2013q2-20130614-win32/gnu tools arm embedded/4.7 2013q2/bin/../lib/gcc/arm-none-eabi/4.7.4/../../../../arm-none-eabi/lib/armv7e-m\libg.a(lib_a-printf.o)
 .text          0x0800aaf8        0x0 c:/program files (x86)/eclipse-arm-eseo/gcc-arm-none-eabi-4_7-2013q2-20130614-win32/gnu tools arm embedded/4.7 2013q2/bin/../lib/gcc/arm-none-eabi/4.7.4/../../../../arm-none-eabi/lib/armv7e-m\libg.a(lib_a-setvbuf.o)
 .text          0x0800aaf8        0x0 c:/program files (x86)/eclipse-arm-eseo/gcc-arm-none-eabi-4_7-2013q2-20130614-win32/gnu tools arm embedded/4.7 2013q2/bin/../lib/gcc/arm-none-eabi/4.7.4/../../../../arm-none-eabi/lib/armv7e-m\libg.a(lib_a-vfprintf.o)
 .text          0x0800aaf8        0x0 c:/program files (x86)/eclipse-arm-eseo/gcc-arm-none-eabi-4_7-2013q2-20130614-win32/gnu tools arm embedded/4.7 2013q2/bin/../lib/gcc/arm-none-eabi/4.7.4/../../../../arm-none-eabi/lib/armv7e-m\libg.a(lib_a-vprintf.o)
 .text          0x0800aaf8        0x0 c:/program files (x86)/eclipse-arm-eseo/gcc-arm-none-eabi-4_7-2013q2-20130614-win32/gnu tools arm embedded/4.7 2013q2/bin/../lib/gcc/arm-none-eabi/4.7.4/../../../../arm-none-eabi/lib/armv7e-m\libg.a(lib_a-wsetup.o)
 .text          0x0800aaf8        0x0 c:/program files (x86)/eclipse-arm-eseo/gcc-arm-none-eabi-4_7-2013q2-20130614-win32/gnu tools arm embedded/4.7 2013q2/bin/../lib/gcc/arm-none-eabi/4.7.4/../../../../arm-none-eabi/lib/armv7e-m\libg.a(lib_a-dtoa.o)
 .text          0x0800aaf8        0x0 c:/program files (x86)/eclipse-arm-eseo/gcc-arm-none-eabi-4_7-2013q2-20130614-win32/gnu tools arm embedded/4.7 2013q2/bin/../lib/gcc/arm-none-eabi/4.7.4/../../../../arm-none-eabi/lib/armv7e-m\libg.a(lib_a-fflush.o)
 .text          0x0800aaf8        0x0 c:/program files (x86)/eclipse-arm-eseo/gcc-arm-none-eabi-4_7-2013q2-20130614-win32/gnu tools arm embedded/4.7 2013q2/bin/../lib/gcc/arm-none-eabi/4.7.4/../../../../arm-none-eabi/lib/armv7e-m\libg.a(lib_a-findfp.o)
 .text          0x0800aaf8        0x0 c:/program files (x86)/eclipse-arm-eseo/gcc-arm-none-eabi-4_7-2013q2-20130614-win32/gnu tools arm embedded/4.7 2013q2/bin/../lib/gcc/arm-none-eabi/4.7.4/../../../../arm-none-eabi/lib/armv7e-m\libg.a(lib_a-freer.o)
 .text          0x0800aaf8        0x0 c:/program files (x86)/eclipse-arm-eseo/gcc-arm-none-eabi-4_7-2013q2-20130614-win32/gnu tools arm embedded/4.7 2013q2/bin/../lib/gcc/arm-none-eabi/4.7.4/../../../../arm-none-eabi/lib/armv7e-m\libg.a(lib_a-fwalk.o)
 .text          0x0800aaf8        0x0 c:/program files (x86)/eclipse-arm-eseo/gcc-arm-none-eabi-4_7-2013q2-20130614-win32/gnu tools arm embedded/4.7 2013q2/bin/../lib/gcc/arm-none-eabi/4.7.4/../../../../arm-none-eabi/lib/armv7e-m\libg.a(lib_a-locale.o)
 .text          0x0800aaf8        0x0 c:/program files (x86)/eclipse-arm-eseo/gcc-arm-none-eabi-4_7-2013q2-20130614-win32/gnu tools arm embedded/4.7 2013q2/bin/../lib/gcc/arm-none-eabi/4.7.4/../../../../arm-none-eabi/lib/armv7e-m\libg.a(lib_a-makebuf.o)
 .text          0x0800aaf8        0x0 c:/program files (x86)/eclipse-arm-eseo/gcc-arm-none-eabi-4_7-2013q2-20130614-win32/gnu tools arm embedded/4.7 2013q2/bin/../lib/gcc/arm-none-eabi/4.7.4/../../../../arm-none-eabi/lib/armv7e-m\libg.a(lib_a-malloc.o)
 .text          0x0800aaf8        0x0 c:/program files (x86)/eclipse-arm-eseo/gcc-arm-none-eabi-4_7-2013q2-20130614-win32/gnu tools arm embedded/4.7 2013q2/bin/../lib/gcc/arm-none-eabi/4.7.4/../../../../arm-none-eabi/lib/armv7e-m\libg.a(lib_a-mallocr.o)
 .text          0x0800aaf8        0x0 c:/program files (x86)/eclipse-arm-eseo/gcc-arm-none-eabi-4_7-2013q2-20130614-win32/gnu tools arm embedded/4.7 2013q2/bin/../lib/gcc/arm-none-eabi/4.7.4/../../../../arm-none-eabi/lib/armv7e-m\libg.a(lib_a-memchr.o)
 .text          0x0800aaf8        0x0 c:/program files (x86)/eclipse-arm-eseo/gcc-arm-none-eabi-4_7-2013q2-20130614-win32/gnu tools arm embedded/4.7 2013q2/bin/../lib/gcc/arm-none-eabi/4.7.4/../../../../arm-none-eabi/lib/armv7e-m\libg.a(lib_a-memcpy.o)
 .text          0x0800aaf8        0x0 c:/program files (x86)/eclipse-arm-eseo/gcc-arm-none-eabi-4_7-2013q2-20130614-win32/gnu tools arm embedded/4.7 2013q2/bin/../lib/gcc/arm-none-eabi/4.7.4/../../../../arm-none-eabi/lib/armv7e-m\libg.a(lib_a-memset.o)
 .text          0x0800aaf8        0x0 c:/program files (x86)/eclipse-arm-eseo/gcc-arm-none-eabi-4_7-2013q2-20130614-win32/gnu tools arm embedded/4.7 2013q2/bin/../lib/gcc/arm-none-eabi/4.7.4/../../../../arm-none-eabi/lib/armv7e-m\libg.a(lib_a-mlock.o)
 .text          0x0800aaf8        0x0 c:/program files (x86)/eclipse-arm-eseo/gcc-arm-none-eabi-4_7-2013q2-20130614-win32/gnu tools arm embedded/4.7 2013q2/bin/../lib/gcc/arm-none-eabi/4.7.4/../../../../arm-none-eabi/lib/armv7e-m\libg.a(lib_a-mprec.o)
 .text          0x0800aaf8        0x0 c:/program files (x86)/eclipse-arm-eseo/gcc-arm-none-eabi-4_7-2013q2-20130614-win32/gnu tools arm embedded/4.7 2013q2/bin/../lib/gcc/arm-none-eabi/4.7.4/../../../../arm-none-eabi/lib/armv7e-m\libg.a(lib_a-s_fpclassify.o)
 .text          0x0800aaf8        0x0 c:/program files (x86)/eclipse-arm-eseo/gcc-arm-none-eabi-4_7-2013q2-20130614-win32/gnu tools arm embedded/4.7 2013q2/bin/../lib/gcc/arm-none-eabi/4.7.4/../../../../arm-none-eabi/lib/armv7e-m\libg.a(lib_a-sbrkr.o)
 .text          0x0800aaf8        0x0 c:/program files (x86)/eclipse-arm-eseo/gcc-arm-none-eabi-4_7-2013q2-20130614-win32/gnu tools arm embedded/4.7 2013q2/bin/../lib/gcc/arm-none-eabi/4.7.4/../../../../arm-none-eabi/lib/armv7e-m\libg.a(lib_a-stdio.o)
 .text          0x0800aaf8        0x0 c:/program files (x86)/eclipse-arm-eseo/gcc-arm-none-eabi-4_7-2013q2-20130614-win32/gnu tools arm embedded/4.7 2013q2/bin/../lib/gcc/arm-none-eabi/4.7.4/../../../../arm-none-eabi/lib/armv7e-m\libg.a(lib_a-strcmp.o)
 .text          0x0800aaf8        0x0 c:/program files (x86)/eclipse-arm-eseo/gcc-arm-none-eabi-4_7-2013q2-20130614-win32/gnu tools arm embedded/4.7 2013q2/bin/../lib/gcc/arm-none-eabi/4.7.4/../../../../arm-none-eabi/lib/armv7e-m\libg.a(lib_a-strlen.o)
 .text          0x0800aaf8        0x0 c:/program files (x86)/eclipse-arm-eseo/gcc-arm-none-eabi-4_7-2013q2-20130614-win32/gnu tools arm embedded/4.7 2013q2/bin/../lib/gcc/arm-none-eabi/4.7.4/../../../../arm-none-eabi/lib/armv7e-m\libg.a(lib_a-vfiprintf.o)
 .text          0x0800aaf8        0x0 c:/program files (x86)/eclipse-arm-eseo/gcc-arm-none-eabi-4_7-2013q2-20130614-win32/gnu tools arm embedded/4.7 2013q2/bin/../lib/gcc/arm-none-eabi/4.7.4/../../../../arm-none-eabi/lib/armv7e-m\libg.a(lib_a-writer.o)
 .text          0x0800aaf8        0x0 c:/program files (x86)/eclipse-arm-eseo/gcc-arm-none-eabi-4_7-2013q2-20130614-win32/gnu tools arm embedded/4.7 2013q2/bin/../lib/gcc/arm-none-eabi/4.7.4/../../../../arm-none-eabi/lib/armv7e-m\libg.a(lib_a-callocr.o)
 .text          0x0800aaf8        0x0 c:/program files (x86)/eclipse-arm-eseo/gcc-arm-none-eabi-4_7-2013q2-20130614-win32/gnu tools arm embedded/4.7 2013q2/bin/../lib/gcc/arm-none-eabi/4.7.4/../../../../arm-none-eabi/lib/armv7e-m\libg.a(lib_a-closer.o)
 .text          0x0800aaf8        0x0 c:/program files (x86)/eclipse-arm-eseo/gcc-arm-none-eabi-4_7-2013q2-20130614-win32/gnu tools arm embedded/4.7 2013q2/bin/../lib/gcc/arm-none-eabi/4.7.4/../../../../arm-none-eabi/lib/armv7e-m\libg.a(lib_a-fclose.o)
 .text          0x0800aaf8        0x0 c:/program files (x86)/eclipse-arm-eseo/gcc-arm-none-eabi-4_7-2013q2-20130614-win32/gnu tools arm embedded/4.7 2013q2/bin/../lib/gcc/arm-none-eabi/4.7.4/../../../../arm-none-eabi/lib/armv7e-m\libg.a(lib_a-fputwc.o)
 .text          0x0800aaf8        0x0 c:/program files (x86)/eclipse-arm-eseo/gcc-arm-none-eabi-4_7-2013q2-20130614-win32/gnu tools arm embedded/4.7 2013q2/bin/../lib/gcc/arm-none-eabi/4.7.4/../../../../arm-none-eabi/lib/armv7e-m\libg.a(lib_a-fstatr.o)
 .text          0x0800aaf8        0x0 c:/program files (x86)/eclipse-arm-eseo/gcc-arm-none-eabi-4_7-2013q2-20130614-win32/gnu tools arm embedded/4.7 2013q2/bin/../lib/gcc/arm-none-eabi/4.7.4/../../../../arm-none-eabi/lib/armv7e-m\libg.a(lib_a-fvwrite.o)
 .text          0x0800aaf8        0x0 c:/program files (x86)/eclipse-arm-eseo/gcc-arm-none-eabi-4_7-2013q2-20130614-win32/gnu tools arm embedded/4.7 2013q2/bin/../lib/gcc/arm-none-eabi/4.7.4/../../../../arm-none-eabi/lib/armv7e-m\libg.a(lib_a-isattyr.o)
 .text          0x0800aaf8        0x0 c:/program files (x86)/eclipse-arm-eseo/gcc-arm-none-eabi-4_7-2013q2-20130614-win32/gnu tools arm embedded/4.7 2013q2/bin/../lib/gcc/arm-none-eabi/4.7.4/../../../../arm-none-eabi/lib/armv7e-m\libg.a(lib_a-lseekr.o)
 .text          0x0800aaf8        0x0 c:/program files (x86)/eclipse-arm-eseo/gcc-arm-none-eabi-4_7-2013q2-20130614-win32/gnu tools arm embedded/4.7 2013q2/bin/../lib/gcc/arm-none-eabi/4.7.4/../../../../arm-none-eabi/lib/armv7e-m\libg.a(lib_a-memmove.o)
 .text          0x0800aaf8        0x0 c:/program files (x86)/eclipse-arm-eseo/gcc-arm-none-eabi-4_7-2013q2-20130614-win32/gnu tools arm embedded/4.7 2013q2/bin/../lib/gcc/arm-none-eabi/4.7.4/../../../../arm-none-eabi/lib/armv7e-m\libg.a(lib_a-readr.o)
 .text          0x0800aaf8        0x0 c:/program files (x86)/eclipse-arm-eseo/gcc-arm-none-eabi-4_7-2013q2-20130614-win32/gnu tools arm embedded/4.7 2013q2/bin/../lib/gcc/arm-none-eabi/4.7.4/../../../../arm-none-eabi/lib/armv7e-m\libg.a(lib_a-reallocr.o)
 .text          0x0800aaf8        0x0 c:/program files (x86)/eclipse-arm-eseo/gcc-arm-none-eabi-4_7-2013q2-20130614-win32/gnu tools arm embedded/4.7 2013q2/bin/../lib/gcc/arm-none-eabi/4.7.4/../../../../arm-none-eabi/lib/armv7e-m\libg.a(lib_a-reent.o)
 .text          0x0800aaf8        0x0 c:/program files (x86)/eclipse-arm-eseo/gcc-arm-none-eabi-4_7-2013q2-20130614-win32/gnu tools arm embedded/4.7 2013q2/bin/../lib/gcc/arm-none-eabi/4.7.4/../../../../arm-none-eabi/lib/armv7e-m\libg.a(lib_a-wbuf.o)
 .text          0x0800aaf8        0x0 c:/program files (x86)/eclipse-arm-eseo/gcc-arm-none-eabi-4_7-2013q2-20130614-win32/gnu tools arm embedded/4.7 2013q2/bin/../lib/gcc/arm-none-eabi/4.7.4/../../../../arm-none-eabi/lib/armv7e-m\libg.a(lib_a-wcrtomb.o)
 .text          0x0800aaf8        0x0 c:/program files (x86)/eclipse-arm-eseo/gcc-arm-none-eabi-4_7-2013q2-20130614-win32/gnu tools arm embedded/4.7 2013q2/bin/../lib/gcc/arm-none-eabi/4.7.4/../../../../arm-none-eabi/lib/armv7e-m\libg.a(lib_a-wctomb_r.o)
 .text          0x0800aaf8      0x110 c:/program files (x86)/eclipse-arm-eseo/gcc-arm-none-eabi-4_7-2013q2-20130614-win32/gnu tools arm embedded/4.7 2013q2/bin/../lib/gcc/arm-none-eabi/4.7.4/armv7e-m\libgcc.a(_arm_cmpdf2.o)
                0x0800aaf8                __gtdf2
                0x0800aaf8                __gedf2
                0x0800ab00                __ltdf2
                0x0800ab00                __ledf2
                0x0800ab08                __nedf2
                0x0800ab08                __eqdf2
                0x0800ab08                __cmpdf2
                0x0800ab84                __aeabi_cdrcmple
                0x0800ab94                __aeabi_cdcmpeq
                0x0800ab94                __aeabi_cdcmple
                0x0800aba4                __aeabi_dcmpeq
                0x0800abb8                __aeabi_dcmplt
                0x0800abcc                __aeabi_dcmple
                0x0800abe0                __aeabi_dcmpge
                0x0800abf4                __aeabi_dcmpgt
 .text          0x0800ac08       0x2c c:/program files (x86)/eclipse-arm-eseo/gcc-arm-none-eabi-4_7-2013q2-20130614-win32/gnu tools arm embedded/4.7 2013q2/bin/../lib/gcc/arm-none-eabi/4.7.4/armv7e-m\libgcc.a(_aeabi_uldivmod.o)
                0x0800ac08                __aeabi_uldivmod
 .text          0x0800ac34       0x58 c:/program files (x86)/eclipse-arm-eseo/gcc-arm-none-eabi-4_7-2013q2-20130614-win32/gnu tools arm embedded/4.7 2013q2/bin/../lib/gcc/arm-none-eabi/4.7.4/armv7e-m\libgcc.a(bpabi.o)
                0x0800ac34                __gnu_ldivmod_helper
                0x0800ac60                __gnu_uldivmod_helper
 .text          0x0800ac8c        0x4 c:/program files (x86)/eclipse-arm-eseo/gcc-arm-none-eabi-4_7-2013q2-20130614-win32/gnu tools arm embedded/4.7 2013q2/bin/../lib/gcc/arm-none-eabi/4.7.4/armv7e-m\libgcc.a(_dvmd_tls.o)
                0x0800ac8c                __aeabi_idiv0
                0x0800ac8c                __aeabi_ldiv0
 .text          0x0800ac90      0x2bc c:/program files (x86)/eclipse-arm-eseo/gcc-arm-none-eabi-4_7-2013q2-20130614-win32/gnu tools arm embedded/4.7 2013q2/bin/../lib/gcc/arm-none-eabi/4.7.4/armv7e-m\libgcc.a(_divdi3.o)
                0x0800ac90                __divdi3
 .text          0x0800af4c      0x288 c:/program files (x86)/eclipse-arm-eseo/gcc-arm-none-eabi-4_7-2013q2-20130614-win32/gnu tools arm embedded/4.7 2013q2/bin/../lib/gcc/arm-none-eabi/4.7.4/armv7e-m\libgcc.a(_udivdi3.o)
                0x0800af4c                __udivdi3
 .text          0x0800b1d4        0x0 c:/program files (x86)/eclipse-arm-eseo/gcc-arm-none-eabi-4_7-2013q2-20130614-win32/gnu tools arm embedded/4.7 2013q2/bin/../lib/gcc/arm-none-eabi/4.7.4/../../../../arm-none-eabi/lib/armv7e-m\libm.a(lib_a-s_atan.o)
 .text          0x0800b1d4        0x0 c:/program files (x86)/eclipse-arm-eseo/gcc-arm-none-eabi-4_7-2013q2-20130614-win32/gnu tools arm embedded/4.7 2013q2/bin/../lib/gcc/arm-none-eabi/4.7.4/../../../../arm-none-eabi/lib/armv7e-m\libm.a(lib_a-s_cos.o)
 .text          0x0800b1d4        0x0 c:/program files (x86)/eclipse-arm-eseo/gcc-arm-none-eabi-4_7-2013q2-20130614-win32/gnu tools arm embedded/4.7 2013q2/bin/../lib/gcc/arm-none-eabi/4.7.4/../../../../arm-none-eabi/lib/armv7e-m\libm.a(lib_a-s_fabs.o)
 .text          0x0800b1d4        0x0 c:/program files (x86)/eclipse-arm-eseo/gcc-arm-none-eabi-4_7-2013q2-20130614-win32/gnu tools arm embedded/4.7 2013q2/bin/../lib/gcc/arm-none-eabi/4.7.4/../../../../arm-none-eabi/lib/armv7e-m\libm.a(lib_a-s_sin.o)
 .text          0x0800b1d4        0x0 c:/program files (x86)/eclipse-arm-eseo/gcc-arm-none-eabi-4_7-2013q2-20130614-win32/gnu tools arm embedded/4.7 2013q2/bin/../lib/gcc/arm-none-eabi/4.7.4/../../../../arm-none-eabi/lib/armv7e-m\libm.a(lib_a-e_rem_pio2.o)
 .text          0x0800b1d4        0x0 c:/program files (x86)/eclipse-arm-eseo/gcc-arm-none-eabi-4_7-2013q2-20130614-win32/gnu tools arm embedded/4.7 2013q2/bin/../lib/gcc/arm-none-eabi/4.7.4/../../../../arm-none-eabi/lib/armv7e-m\libm.a(lib_a-k_cos.o)
 .text          0x0800b1d4        0x0 c:/program files (x86)/eclipse-arm-eseo/gcc-arm-none-eabi-4_7-2013q2-20130614-win32/gnu tools arm embedded/4.7 2013q2/bin/../lib/gcc/arm-none-eabi/4.7.4/../../../../arm-none-eabi/lib/armv7e-m\libm.a(lib_a-k_rem_pio2.o)
 .text          0x0800b1d4        0x0 c:/program files (x86)/eclipse-arm-eseo/gcc-arm-none-eabi-4_7-2013q2-20130614-win32/gnu tools arm embedded/4.7 2013q2/bin/../lib/gcc/arm-none-eabi/4.7.4/../../../../arm-none-eabi/lib/armv7e-m\libm.a(lib_a-k_sin.o)
 .text          0x0800b1d4        0x0 c:/program files (x86)/eclipse-arm-eseo/gcc-arm-none-eabi-4_7-2013q2-20130614-win32/gnu tools arm embedded/4.7 2013q2/bin/../lib/gcc/arm-none-eabi/4.7.4/../../../../arm-none-eabi/lib/armv7e-m\libm.a(lib_a-s_floor.o)
 .text          0x0800b1d4        0x0 c:/program files (x86)/eclipse-arm-eseo/gcc-arm-none-eabi-4_7-2013q2-20130614-win32/gnu tools arm embedded/4.7 2013q2/bin/../lib/gcc/arm-none-eabi/4.7.4/../../../../arm-none-eabi/lib/armv7e-m\libm.a(lib_a-s_scalbn.o)
 .text          0x0800b1d4        0x0 c:/program files (x86)/eclipse-arm-eseo/gcc-arm-none-eabi-4_7-2013q2-20130614-win32/gnu tools arm embedded/4.7 2013q2/bin/../lib/gcc/arm-none-eabi/4.7.4/../../../../arm-none-eabi/lib/armv7e-m\libm.a(lib_a-s_copysign.o)
 *(.text.*)
 .text.Reset_Handler
                0x0800b1d4       0x4c ./QS/startup_stm32f40xx.o
                0x0800b1d4                Reset_Handler
 .text.Default_Handler
                0x0800b220        0x4 ./QS/startup_stm32f40xx.o
                0x0800b220                RTC_Alarm_IRQHandler
                0x0800b220                HASH_RNG_IRQHandler
                0x0800b220                EXTI2_IRQHandler
                0x0800b220                TIM8_CC_IRQHandler
                0x0800b220                TIM1_CC_IRQHandler
                0x0800b220                DMA2_Stream5_IRQHandler
                0x0800b220                DMA1_Stream5_IRQHandler
                0x0800b220                PVD_IRQHandler
                0x0800b220                SDIO_IRQHandler
                0x0800b220                TAMP_STAMP_IRQHandler
                0x0800b220                CAN2_RX1_IRQHandler
                0x0800b220                EXTI3_IRQHandler
                0x0800b220                TIM1_UP_TIM10_IRQHandler
                0x0800b220                I2C3_ER_IRQHandler
                0x0800b220                EXTI0_IRQHandler
                0x0800b220                I2C2_EV_IRQHandler
                0x0800b220                DMA1_Stream2_IRQHandler
                0x0800b220                FPU_IRQHandler
                0x0800b220                OTG_HS_WKUP_IRQHandler
                0x0800b220                CAN2_SCE_IRQHandler
                0x0800b220                DMA2_Stream2_IRQHandler
                0x0800b220                SPI1_IRQHandler
                0x0800b220                TIM6_DAC_IRQHandler
                0x0800b220                TIM1_BRK_TIM9_IRQHandler
                0x0800b220                DCMI_IRQHandler
                0x0800b220                CAN2_RX0_IRQHandler
                0x0800b220                DMA2_Stream3_IRQHandler
                0x0800b220                USART6_IRQHandler
                0x0800b220                CRYP_IRQHandler
                0x0800b220                UART5_IRQHandler
                0x0800b220                DMA2_Stream0_IRQHandler
                0x0800b220                TIM4_IRQHandler
                0x0800b220                I2C1_EV_IRQHandler
                0x0800b220                DMA1_Stream6_IRQHandler
                0x0800b220                DMA1_Stream1_IRQHandler
                0x0800b220                UART4_IRQHandler
                0x0800b220                TIM3_IRQHandler
                0x0800b220                RCC_IRQHandler
                0x0800b220                Default_Handler
                0x0800b220                EXTI15_10_IRQHandler
                0x0800b220                ADC_IRQHandler
                0x0800b220                DMA1_Stream7_IRQHandler
                0x0800b220                TIM7_IRQHandler
                0x0800b220                CAN2_TX_IRQHandler
                0x0800b220                TIM5_IRQHandler
                0x0800b220                DMA2_Stream7_IRQHandler
                0x0800b220                I2C3_EV_IRQHandler
                0x0800b220                EXTI9_5_IRQHandler
                0x0800b220                RTC_WKUP_IRQHandler
                0x0800b220                ETH_WKUP_IRQHandler
                0x0800b220                SPI2_IRQHandler
                0x0800b220                OTG_HS_EP1_IN_IRQHandler
                0x0800b220                DMA1_Stream0_IRQHandler
                0x0800b220                CAN1_TX_IRQHandler
                0x0800b220                EXTI4_IRQHandler
                0x0800b220                FSMC_IRQHandler
                0x0800b220                ETH_IRQHandler
                0x0800b220                OTG_HS_EP1_OUT_IRQHandler
                0x0800b220                WWDG_IRQHandler
                0x0800b220                TIM2_IRQHandler
                0x0800b220                OTG_FS_WKUP_IRQHandler
                0x0800b220                OTG_HS_IRQHandler
                0x0800b220                EXTI1_IRQHandler
                0x0800b220                I2C2_ER_IRQHandler
                0x0800b220                DMA2_Stream1_IRQHandler
                0x0800b220                FLASH_IRQHandler
                0x0800b220                DMA2_Stream4_IRQHandler
                0x0800b220                OTG_FS_IRQHandler
                0x0800b220                SPI3_IRQHandler
                0x0800b220                DMA1_Stream4_IRQHandler
                0x0800b220                I2C1_ER_IRQHandler
                0x0800b220                DMA2_Stream6_IRQHandler
                0x0800b220                DMA1_Stream3_IRQHandler
 .text.NVIC_PriorityGroupConfig
                0x0800b224       0x14 ../stm32f4xx\libstm32f4xx.a(misc.o)
                0x0800b224                NVIC_PriorityGroupConfig
 .text.NVIC_Init
                0x0800b238       0x6c ../stm32f4xx\libstm32f4xx.a(misc.o)
                0x0800b238                NVIC_Init
 .text.NVIC_SetVectorTable
                0x0800b2a4       0x14 ../stm32f4xx\libstm32f4xx.a(misc.o)
                0x0800b2a4                NVIC_SetVectorTable
 .text.NVIC_SystemLPConfig
                0x0800b2b8       0x18 ../stm32f4xx\libstm32f4xx.a(misc.o)
                0x0800b2b8                NVIC_SystemLPConfig
 .text.SysTick_CLKSourceConfig
                0x0800b2d0       0x18 ../stm32f4xx\libstm32f4xx.a(misc.o)
                0x0800b2d0                SysTick_CLKSourceConfig
 .text.ADC_DeInit
                0x0800b2e8       0x1a ../stm32f4xx\libstm32f4xx.a(stm32f4xx_adc.o)
                0x0800b2e8                ADC_DeInit
 *fill*         0x0800b302        0x2 00
 .text.ADC_Init
                0x0800b304       0x4c ../stm32f4xx\libstm32f4xx.a(stm32f4xx_adc.o)
                0x0800b304                ADC_Init
 .text.ADC_StructInit
                0x0800b350       0x14 ../stm32f4xx\libstm32f4xx.a(stm32f4xx_adc.o)
                0x0800b350                ADC_StructInit
 .text.ADC_CommonInit
                0x0800b364       0x28 ../stm32f4xx\libstm32f4xx.a(stm32f4xx_adc.o)
                0x0800b364                ADC_CommonInit
 .text.ADC_CommonStructInit
                0x0800b38c        0xc ../stm32f4xx\libstm32f4xx.a(stm32f4xx_adc.o)
                0x0800b38c                ADC_CommonStructInit
 .text.ADC_Cmd  0x0800b398       0x12 ../stm32f4xx\libstm32f4xx.a(stm32f4xx_adc.o)
                0x0800b398                ADC_Cmd
 .text.ADC_AnalogWatchdogCmd
                0x0800b3aa       0x10 ../stm32f4xx\libstm32f4xx.a(stm32f4xx_adc.o)
                0x0800b3aa                ADC_AnalogWatchdogCmd
 .text.ADC_AnalogWatchdogThresholdsConfig
                0x0800b3ba        0x6 ../stm32f4xx\libstm32f4xx.a(stm32f4xx_adc.o)
                0x0800b3ba                ADC_AnalogWatchdogThresholdsConfig
 .text.ADC_AnalogWatchdogSingleChannelConfig
                0x0800b3c0        0xc ../stm32f4xx\libstm32f4xx.a(stm32f4xx_adc.o)
                0x0800b3c0                ADC_AnalogWatchdogSingleChannelConfig
 .text.ADC_TempSensorVrefintCmd
                0x0800b3cc       0x18 ../stm32f4xx\libstm32f4xx.a(stm32f4xx_adc.o)
                0x0800b3cc                ADC_TempSensorVrefintCmd
 .text.ADC_VBATCmd
                0x0800b3e4       0x18 ../stm32f4xx\libstm32f4xx.a(stm32f4xx_adc.o)
                0x0800b3e4                ADC_VBATCmd
 .text.ADC_RegularChannelConfig
                0x0800b3fc       0x9c ../stm32f4xx\libstm32f4xx.a(stm32f4xx_adc.o)
                0x0800b3fc                ADC_RegularChannelConfig
 .text.ADC_SoftwareStartConv
                0x0800b498        0xa ../stm32f4xx\libstm32f4xx.a(stm32f4xx_adc.o)
                0x0800b498                ADC_SoftwareStartConv
 .text.ADC_GetSoftwareStartConvStatus
                0x0800b4a2        0x8 ../stm32f4xx\libstm32f4xx.a(stm32f4xx_adc.o)
                0x0800b4a2                ADC_GetSoftwareStartConvStatus
 .text.ADC_EOCOnEachRegularChannelCmd
                0x0800b4aa       0x12 ../stm32f4xx\libstm32f4xx.a(stm32f4xx_adc.o)
                0x0800b4aa                ADC_EOCOnEachRegularChannelCmd
 .text.ADC_ContinuousModeCmd
                0x0800b4bc       0x12 ../stm32f4xx\libstm32f4xx.a(stm32f4xx_adc.o)
                0x0800b4bc                ADC_ContinuousModeCmd
 .text.ADC_DiscModeChannelCountConfig
                0x0800b4ce       0x10 ../stm32f4xx\libstm32f4xx.a(stm32f4xx_adc.o)
                0x0800b4ce                ADC_DiscModeChannelCountConfig
 .text.ADC_DiscModeCmd
                0x0800b4de       0x12 ../stm32f4xx\libstm32f4xx.a(stm32f4xx_adc.o)
                0x0800b4de                ADC_DiscModeCmd
 .text.ADC_GetConversionValue
                0x0800b4f0        0x6 ../stm32f4xx\libstm32f4xx.a(stm32f4xx_adc.o)
                0x0800b4f0                ADC_GetConversionValue
 *fill*         0x0800b4f6        0x2 00
 .text.ADC_GetMultiModeConversionValue
                0x0800b4f8        0xc ../stm32f4xx\libstm32f4xx.a(stm32f4xx_adc.o)
                0x0800b4f8                ADC_GetMultiModeConversionValue
 .text.ADC_DMACmd
                0x0800b504       0x12 ../stm32f4xx\libstm32f4xx.a(stm32f4xx_adc.o)
                0x0800b504                ADC_DMACmd
 .text.ADC_DMARequestAfterLastTransferCmd
                0x0800b516       0x12 ../stm32f4xx\libstm32f4xx.a(stm32f4xx_adc.o)
                0x0800b516                ADC_DMARequestAfterLastTransferCmd
 .text.ADC_MultiModeDMARequestAfterLastTransferCmd
                0x0800b528       0x18 ../stm32f4xx\libstm32f4xx.a(stm32f4xx_adc.o)
                0x0800b528                ADC_MultiModeDMARequestAfterLastTransferCmd
 .text.ADC_InjectedChannelConfig
                0x0800b540       0x62 ../stm32f4xx\libstm32f4xx.a(stm32f4xx_adc.o)
                0x0800b540                ADC_InjectedChannelConfig
 .text.ADC_InjectedSequencerLengthConfig
                0x0800b5a2       0x10 ../stm32f4xx\libstm32f4xx.a(stm32f4xx_adc.o)
                0x0800b5a2                ADC_InjectedSequencerLengthConfig
 .text.ADC_SetInjectedOffset
                0x0800b5b2       0x16 ../stm32f4xx\libstm32f4xx.a(stm32f4xx_adc.o)
                0x0800b5b2                ADC_SetInjectedOffset
 .text.ADC_ExternalTrigInjectedConvConfig
                0x0800b5c8        0xc ../stm32f4xx\libstm32f4xx.a(stm32f4xx_adc.o)
                0x0800b5c8                ADC_ExternalTrigInjectedConvConfig
 .text.ADC_ExternalTrigInjectedConvEdgeConfig
                0x0800b5d4        0xc ../stm32f4xx\libstm32f4xx.a(stm32f4xx_adc.o)
                0x0800b5d4                ADC_ExternalTrigInjectedConvEdgeConfig
 .text.ADC_SoftwareStartInjectedConv
                0x0800b5e0        0xa ../stm32f4xx\libstm32f4xx.a(stm32f4xx_adc.o)
                0x0800b5e0                ADC_SoftwareStartInjectedConv
 .text.ADC_GetSoftwareStartInjectedConvCmdStatus
                0x0800b5ea        0x8 ../stm32f4xx\libstm32f4xx.a(stm32f4xx_adc.o)
                0x0800b5ea                ADC_GetSoftwareStartInjectedConvCmdStatus
 .text.ADC_AutoInjectedConvCmd
                0x0800b5f2       0x12 ../stm32f4xx\libstm32f4xx.a(stm32f4xx_adc.o)
                0x0800b5f2                ADC_AutoInjectedConvCmd
 .text.ADC_InjectedDiscModeCmd
                0x0800b604       0x12 ../stm32f4xx\libstm32f4xx.a(stm32f4xx_adc.o)
                0x0800b604                ADC_InjectedDiscModeCmd
 .text.ADC_GetInjectedConversionValue
                0x0800b616       0x1a ../stm32f4xx\libstm32f4xx.a(stm32f4xx_adc.o)
                0x0800b616                ADC_GetInjectedConversionValue
 .text.ADC_ITConfig
                0x0800b630       0x18 ../stm32f4xx\libstm32f4xx.a(stm32f4xx_adc.o)
                0x0800b630                ADC_ITConfig
 .text.ADC_GetFlagStatus
                0x0800b648        0xc ../stm32f4xx\libstm32f4xx.a(stm32f4xx_adc.o)
                0x0800b648                ADC_GetFlagStatus
 .text.ADC_ClearFlag
                0x0800b654        0x6 ../stm32f4xx\libstm32f4xx.a(stm32f4xx_adc.o)
                0x0800b654                ADC_ClearFlag
 .text.ADC_GetITStatus
                0x0800b65a       0x1c ../stm32f4xx\libstm32f4xx.a(stm32f4xx_adc.o)
                0x0800b65a                ADC_GetITStatus
 .text.ADC_ClearITPendingBit
                0x0800b676        0x8 ../stm32f4xx\libstm32f4xx.a(stm32f4xx_adc.o)
                0x0800b676                ADC_ClearITPendingBit
 *fill*         0x0800b67e        0x2 00
 .text.CAN_DeInit
                0x0800b680       0x34 ../stm32f4xx\libstm32f4xx.a(stm32f4xx_can.o)
                0x0800b680                CAN_DeInit
 .text.CAN_Init
                0x0800b6b4       0xd6 ../stm32f4xx\libstm32f4xx.a(stm32f4xx_can.o)
                0x0800b6b4                CAN_Init
 *fill*         0x0800b78a        0x2 00
 .text.CAN_FilterInit
                0x0800b78c       0xec ../stm32f4xx\libstm32f4xx.a(stm32f4xx_can.o)
                0x0800b78c                CAN_FilterInit
 .text.CAN_StructInit
                0x0800b878       0x20 ../stm32f4xx\libstm32f4xx.a(stm32f4xx_can.o)
                0x0800b878                CAN_StructInit
 .text.CAN_SlaveStartBank
                0x0800b898       0x3c ../stm32f4xx\libstm32f4xx.a(stm32f4xx_can.o)
                0x0800b898                CAN_SlaveStartBank
 .text.CAN_DBGFreeze
                0x0800b8d4       0x12 ../stm32f4xx\libstm32f4xx.a(stm32f4xx_can.o)
                0x0800b8d4                CAN_DBGFreeze
 .text.CAN_TTComModeCmd
                0x0800b8e6       0x58 ../stm32f4xx\libstm32f4xx.a(stm32f4xx_can.o)
                0x0800b8e6                CAN_TTComModeCmd
 .text.CAN_Transmit
                0x0800b93e       0xb4 ../stm32f4xx\libstm32f4xx.a(stm32f4xx_can.o)
                0x0800b93e                CAN_Transmit
 *fill*         0x0800b9f2        0x2 00
 .text.CAN_TransmitStatus
                0x0800b9f4       0x4c ../stm32f4xx\libstm32f4xx.a(stm32f4xx_can.o)
                0x0800b9f4                CAN_TransmitStatus
 .text.CAN_CancelTransmit
                0x0800ba40       0x24 ../stm32f4xx\libstm32f4xx.a(stm32f4xx_can.o)
                0x0800ba40                CAN_CancelTransmit
 .text.CAN_Receive
                0x0800ba64       0x8c ../stm32f4xx\libstm32f4xx.a(stm32f4xx_can.o)
                0x0800ba64                CAN_Receive
 .text.CAN_FIFORelease
                0x0800baf0       0x16 ../stm32f4xx\libstm32f4xx.a(stm32f4xx_can.o)
                0x0800baf0                CAN_FIFORelease
 .text.CAN_MessagePending
                0x0800bb06       0x16 ../stm32f4xx\libstm32f4xx.a(stm32f4xx_can.o)
                0x0800bb06                CAN_MessagePending
 .text.CAN_OperatingModeRequest
                0x0800bb1c       0x88 ../stm32f4xx\libstm32f4xx.a(stm32f4xx_can.o)
                0x0800bb1c                CAN_OperatingModeRequest
 .text.CAN_Sleep
                0x0800bba4       0x1c ../stm32f4xx\libstm32f4xx.a(stm32f4xx_can.o)
                0x0800bba4                CAN_Sleep
 .text.CAN_WakeUp
                0x0800bbc0       0x22 ../stm32f4xx\libstm32f4xx.a(stm32f4xx_can.o)
                0x0800bbc0                CAN_WakeUp
 .text.CAN_GetLastErrorCode
                0x0800bbe2        0x8 ../stm32f4xx\libstm32f4xx.a(stm32f4xx_can.o)
                0x0800bbe2                CAN_GetLastErrorCode
 .text.CAN_GetReceiveErrorCounter
                0x0800bbea        0x6 ../stm32f4xx\libstm32f4xx.a(stm32f4xx_can.o)
                0x0800bbea                CAN_GetReceiveErrorCounter
 .text.CAN_GetLSBTransmitErrorCounter
                0x0800bbf0        0x8 ../stm32f4xx\libstm32f4xx.a(stm32f4xx_can.o)
                0x0800bbf0                CAN_GetLSBTransmitErrorCounter
 .text.CAN_ITConfig
                0x0800bbf8       0x10 ../stm32f4xx\libstm32f4xx.a(stm32f4xx_can.o)
                0x0800bbf8                CAN_ITConfig
 .text.CAN_GetFlagStatus
                0x0800bc08       0x34 ../stm32f4xx\libstm32f4xx.a(stm32f4xx_can.o)
                0x0800bc08                CAN_GetFlagStatus
 .text.CAN_ClearFlag
                0x0800bc3c       0x34 ../stm32f4xx\libstm32f4xx.a(stm32f4xx_can.o)
                0x0800bc3c                CAN_ClearFlag
 .text.CAN_GetITStatus
                0x0800bc70       0xca ../stm32f4xx\libstm32f4xx.a(stm32f4xx_can.o)
                0x0800bc70                CAN_GetITStatus
 *fill*         0x0800bd3a        0x2 00
 .text.CAN_ClearITPendingBit
                0x0800bd3c       0x78 ../stm32f4xx\libstm32f4xx.a(stm32f4xx_can.o)
                0x0800bd3c                CAN_ClearITPendingBit
 .text.DMA_DeInit
                0x0800bdb4      0x10c ../stm32f4xx\libstm32f4xx.a(stm32f4xx_dma.o)
                0x0800bdb4                DMA_DeInit
 .text.DMA_Init
                0x0800bec0       0x54 ../stm32f4xx\libstm32f4xx.a(stm32f4xx_dma.o)
                0x0800bec0                DMA_Init
 .text.DMA_StructInit
                0x0800bf14       0x22 ../stm32f4xx\libstm32f4xx.a(stm32f4xx_dma.o)
                0x0800bf14                DMA_StructInit
 .text.DMA_Cmd  0x0800bf36       0x12 ../stm32f4xx\libstm32f4xx.a(stm32f4xx_dma.o)
                0x0800bf36                DMA_Cmd
 .text.DMA_PeriphIncOffsetSizeConfig
                0x0800bf48       0x12 ../stm32f4xx\libstm32f4xx.a(stm32f4xx_dma.o)
                0x0800bf48                DMA_PeriphIncOffsetSizeConfig
 .text.DMA_FlowControllerConfig
                0x0800bf5a       0x12 ../stm32f4xx\libstm32f4xx.a(stm32f4xx_dma.o)
                0x0800bf5a                DMA_FlowControllerConfig
 .text.DMA_SetCurrDataCounter
                0x0800bf6c        0x4 ../stm32f4xx\libstm32f4xx.a(stm32f4xx_dma.o)
                0x0800bf6c                DMA_SetCurrDataCounter
 .text.DMA_GetCurrDataCounter
                0x0800bf70        0x6 ../stm32f4xx\libstm32f4xx.a(stm32f4xx_dma.o)
                0x0800bf70                DMA_GetCurrDataCounter
 .text.DMA_DoubleBufferModeConfig
                0x0800bf76       0x14 ../stm32f4xx\libstm32f4xx.a(stm32f4xx_dma.o)
                0x0800bf76                DMA_DoubleBufferModeConfig
 .text.DMA_DoubleBufferModeCmd
                0x0800bf8a       0x12 ../stm32f4xx\libstm32f4xx.a(stm32f4xx_dma.o)
                0x0800bf8a                DMA_DoubleBufferModeCmd
 .text.DMA_MemoryTargetConfig
                0x0800bf9c        0xa ../stm32f4xx\libstm32f4xx.a(stm32f4xx_dma.o)
                0x0800bf9c                DMA_MemoryTargetConfig
 .text.DMA_GetCurrentMemoryTarget
                0x0800bfa6        0x8 ../stm32f4xx\libstm32f4xx.a(stm32f4xx_dma.o)
                0x0800bfa6                DMA_GetCurrentMemoryTarget
 .text.DMA_GetCmdStatus
                0x0800bfae        0x8 ../stm32f4xx\libstm32f4xx.a(stm32f4xx_dma.o)
                0x0800bfae                DMA_GetCmdStatus
 .text.DMA_GetFIFOStatus
                0x0800bfb6        0x8 ../stm32f4xx\libstm32f4xx.a(stm32f4xx_dma.o)
                0x0800bfb6                DMA_GetFIFOStatus
 *fill*         0x0800bfbe        0x2 00
 .text.DMA_GetFlagStatus
                0x0800bfc0       0x38 ../stm32f4xx\libstm32f4xx.a(stm32f4xx_dma.o)
                0x0800bfc0                DMA_GetFlagStatus
 .text.DMA_ClearFlag
                0x0800bff8       0x30 ../stm32f4xx\libstm32f4xx.a(stm32f4xx_dma.o)
                0x0800bff8                DMA_ClearFlag
 .text.DMA_ITConfig
                0x0800c028       0x3e ../stm32f4xx\libstm32f4xx.a(stm32f4xx_dma.o)
                0x0800c028                DMA_ITConfig
 *fill*         0x0800c066        0x2 00
 .text.DMA_GetITStatus
                0x0800c068       0x54 ../stm32f4xx\libstm32f4xx.a(stm32f4xx_dma.o)
                0x0800c068                DMA_GetITStatus
 .text.DMA_ClearITPendingBit
                0x0800c0bc       0x30 ../stm32f4xx\libstm32f4xx.a(stm32f4xx_dma.o)
                0x0800c0bc                DMA_ClearITPendingBit
 .text.EXTI_DeInit
                0x0800c0ec       0x1c ../stm32f4xx\libstm32f4xx.a(stm32f4xx_exti.o)
                0x0800c0ec                EXTI_DeInit
 .text.EXTI_Init
                0x0800c108       0x78 ../stm32f4xx\libstm32f4xx.a(stm32f4xx_exti.o)
                0x0800c108                EXTI_Init
 .text.EXTI_StructInit
                0x0800c180        0xe ../stm32f4xx\libstm32f4xx.a(stm32f4xx_exti.o)
                0x0800c180                EXTI_StructInit
 *fill*         0x0800c18e        0x2 00
 .text.EXTI_GenerateSWInterrupt
                0x0800c190       0x10 ../stm32f4xx\libstm32f4xx.a(stm32f4xx_exti.o)
                0x0800c190                EXTI_GenerateSWInterrupt
 .text.EXTI_GetFlagStatus
                0x0800c1a0       0x14 ../stm32f4xx\libstm32f4xx.a(stm32f4xx_exti.o)
                0x0800c1a0                EXTI_GetFlagStatus
 .text.EXTI_ClearFlag
                0x0800c1b4        0xc ../stm32f4xx\libstm32f4xx.a(stm32f4xx_exti.o)
                0x0800c1b4                EXTI_ClearFlag
 .text.EXTI_GetITStatus
                0x0800c1c0       0x20 ../stm32f4xx\libstm32f4xx.a(stm32f4xx_exti.o)
                0x0800c1c0                EXTI_GetITStatus
 .text.EXTI_ClearITPendingBit
                0x0800c1e0        0xc ../stm32f4xx\libstm32f4xx.a(stm32f4xx_exti.o)
                0x0800c1e0                EXTI_ClearITPendingBit
 .text.FLASH_SetLatency
                0x0800c1ec        0xc ../stm32f4xx\libstm32f4xx.a(stm32f4xx_flash.o)
                0x0800c1ec                FLASH_SetLatency
 .text.FLASH_PrefetchBufferCmd
                0x0800c1f8       0x18 ../stm32f4xx\libstm32f4xx.a(stm32f4xx_flash.o)
                0x0800c1f8                FLASH_PrefetchBufferCmd
 .text.FLASH_InstructionCacheCmd
                0x0800c210       0x18 ../stm32f4xx\libstm32f4xx.a(stm32f4xx_flash.o)
                0x0800c210                FLASH_InstructionCacheCmd
 .text.FLASH_DataCacheCmd
                0x0800c228       0x18 ../stm32f4xx\libstm32f4xx.a(stm32f4xx_flash.o)
                0x0800c228                FLASH_DataCacheCmd
 .text.FLASH_InstructionCacheReset
                0x0800c240       0x10 ../stm32f4xx\libstm32f4xx.a(stm32f4xx_flash.o)
                0x0800c240                FLASH_InstructionCacheReset
 .text.FLASH_DataCacheReset
                0x0800c250       0x10 ../stm32f4xx\libstm32f4xx.a(stm32f4xx_flash.o)
                0x0800c250                FLASH_DataCacheReset
 .text.FLASH_Unlock
                0x0800c260       0x1c ../stm32f4xx\libstm32f4xx.a(stm32f4xx_flash.o)
                0x0800c260                FLASH_Unlock
 .text.FLASH_Lock
                0x0800c27c       0x10 ../stm32f4xx\libstm32f4xx.a(stm32f4xx_flash.o)
                0x0800c27c                FLASH_Lock
 .text.FLASH_OB_Unlock
                0x0800c28c       0x1c ../stm32f4xx\libstm32f4xx.a(stm32f4xx_flash.o)
                0x0800c28c                FLASH_OB_Unlock
 .text.FLASH_OB_Lock
                0x0800c2a8       0x10 ../stm32f4xx\libstm32f4xx.a(stm32f4xx_flash.o)
                0x0800c2a8                FLASH_OB_Lock
 .text.FLASH_OB_BORConfig
                0x0800c2b8       0x18 ../stm32f4xx\libstm32f4xx.a(stm32f4xx_flash.o)
                0x0800c2b8                FLASH_OB_BORConfig
 .text.FLASH_OB_GetUser
                0x0800c2d0       0x10 ../stm32f4xx\libstm32f4xx.a(stm32f4xx_flash.o)
                0x0800c2d0                FLASH_OB_GetUser
 .text.FLASH_OB_GetWRP
                0x0800c2e0        0xc ../stm32f4xx\libstm32f4xx.a(stm32f4xx_flash.o)
                0x0800c2e0                FLASH_OB_GetWRP
 .text.FLASH_OB_GetWRP1
                0x0800c2ec        0xc ../stm32f4xx\libstm32f4xx.a(stm32f4xx_flash.o)
                0x0800c2ec                FLASH_OB_GetWRP1
 .text.FLASH_OB_GetRDP
                0x0800c2f8       0x10 ../stm32f4xx\libstm32f4xx.a(stm32f4xx_flash.o)
                0x0800c2f8                FLASH_OB_GetRDP
 .text.FLASH_OB_GetBOR
                0x0800c308       0x10 ../stm32f4xx\libstm32f4xx.a(stm32f4xx_flash.o)
                0x0800c308                FLASH_OB_GetBOR
 .text.FLASH_ITConfig
                0x0800c318       0x18 ../stm32f4xx\libstm32f4xx.a(stm32f4xx_flash.o)
                0x0800c318                FLASH_ITConfig
 .text.FLASH_GetFlagStatus
                0x0800c330       0x14 ../stm32f4xx\libstm32f4xx.a(stm32f4xx_flash.o)
                0x0800c330                FLASH_GetFlagStatus
 .text.FLASH_ClearFlag
                0x0800c344        0xc ../stm32f4xx\libstm32f4xx.a(stm32f4xx_flash.o)
                0x0800c344                FLASH_ClearFlag
 .text.FLASH_GetStatus
                0x0800c350       0x34 ../stm32f4xx\libstm32f4xx.a(stm32f4xx_flash.o)
                0x0800c350                FLASH_GetStatus
 .text.FLASH_WaitForLastOperation
                0x0800c384       0x1e ../stm32f4xx\libstm32f4xx.a(stm32f4xx_flash.o)
                0x0800c384                FLASH_WaitForLastOperation
 *fill*         0x0800c3a2        0x2 00
 .text.FLASH_OB_Launch
                0x0800c3a4       0x14 ../stm32f4xx\libstm32f4xx.a(stm32f4xx_flash.o)
                0x0800c3a4                FLASH_OB_Launch
 .text.FLASH_OB_UserConfig
                0x0800c3b8       0x28 ../stm32f4xx\libstm32f4xx.a(stm32f4xx_flash.o)
                0x0800c3b8                FLASH_OB_UserConfig
 .text.FLASH_OB_RDPConfig
                0x0800c3e0       0x18 ../stm32f4xx\libstm32f4xx.a(stm32f4xx_flash.o)
                0x0800c3e0                FLASH_OB_RDPConfig
 .text.FLASH_OB_WRP1Config
                0x0800c3f8       0x28 ../stm32f4xx\libstm32f4xx.a(stm32f4xx_flash.o)
                0x0800c3f8                FLASH_OB_WRP1Config
 .text.FLASH_OB_WRPConfig
                0x0800c420       0x28 ../stm32f4xx\libstm32f4xx.a(stm32f4xx_flash.o)
                0x0800c420                FLASH_OB_WRPConfig
 .text.FLASH_ProgramByte
                0x0800c448       0x38 ../stm32f4xx\libstm32f4xx.a(stm32f4xx_flash.o)
                0x0800c448                FLASH_ProgramByte
 .text.FLASH_ProgramHalfWord
                0x0800c480       0x3c ../stm32f4xx\libstm32f4xx.a(stm32f4xx_flash.o)
                0x0800c480                FLASH_ProgramHalfWord
 .text.FLASH_ProgramWord
                0x0800c4bc       0x3c ../stm32f4xx\libstm32f4xx.a(stm32f4xx_flash.o)
                0x0800c4bc                FLASH_ProgramWord
 .text.FLASH_ProgramDoubleWord
                0x0800c4f8       0x40 ../stm32f4xx\libstm32f4xx.a(stm32f4xx_flash.o)
                0x0800c4f8                FLASH_ProgramDoubleWord
 .text.FLASH_EraseAllSectors
                0x0800c538       0x5c ../stm32f4xx\libstm32f4xx.a(stm32f4xx_flash.o)
                0x0800c538                FLASH_EraseAllSectors
 .text.FLASH_EraseSector
                0x0800c594       0x6c ../stm32f4xx\libstm32f4xx.a(stm32f4xx_flash.o)
                0x0800c594                FLASH_EraseSector
 .text.GPIO_DeInit
                0x0800c600       0xd8 ../stm32f4xx\libstm32f4xx.a(stm32f4xx_gpio.o)
                0x0800c600                GPIO_DeInit
 .text.GPIO_Init
                0x0800c6d8       0x86 ../stm32f4xx\libstm32f4xx.a(stm32f4xx_gpio.o)
                0x0800c6d8                GPIO_Init
 .text.GPIO_StructInit
                0x0800c75e       0x12 ../stm32f4xx\libstm32f4xx.a(stm32f4xx_gpio.o)
                0x0800c75e                GPIO_StructInit
 .text.GPIO_PinLockConfig
                0x0800c770       0x26 ../stm32f4xx\libstm32f4xx.a(stm32f4xx_gpio.o)
                0x0800c770                GPIO_PinLockConfig
 .text.GPIO_ReadInputDataBit
                0x0800c796        0xc ../stm32f4xx\libstm32f4xx.a(stm32f4xx_gpio.o)
                0x0800c796                GPIO_ReadInputDataBit
 .text.GPIO_ReadInputData
                0x0800c7a2        0x6 ../stm32f4xx\libstm32f4xx.a(stm32f4xx_gpio.o)
                0x0800c7a2                GPIO_ReadInputData
 .text.GPIO_ReadOutputDataBit
                0x0800c7a8        0xc ../stm32f4xx\libstm32f4xx.a(stm32f4xx_gpio.o)
                0x0800c7a8                GPIO_ReadOutputDataBit
 .text.GPIO_ReadOutputData
                0x0800c7b4        0x6 ../stm32f4xx\libstm32f4xx.a(stm32f4xx_gpio.o)
                0x0800c7b4                GPIO_ReadOutputData
 .text.GPIO_SetBits
                0x0800c7ba        0x4 ../stm32f4xx\libstm32f4xx.a(stm32f4xx_gpio.o)
                0x0800c7ba                GPIO_SetBits
 .text.GPIO_ResetBits
                0x0800c7be        0x4 ../stm32f4xx\libstm32f4xx.a(stm32f4xx_gpio.o)
                0x0800c7be                GPIO_ResetBits
 .text.GPIO_WriteBit
                0x0800c7c2        0xa ../stm32f4xx\libstm32f4xx.a(stm32f4xx_gpio.o)
                0x0800c7c2                GPIO_WriteBit
 .text.GPIO_Write
                0x0800c7cc        0x4 ../stm32f4xx\libstm32f4xx.a(stm32f4xx_gpio.o)
                0x0800c7cc                GPIO_Write
 .text.GPIO_ToggleBits
                0x0800c7d0        0x8 ../stm32f4xx\libstm32f4xx.a(stm32f4xx_gpio.o)
                0x0800c7d0                GPIO_ToggleBits
 .text.GPIO_PinAFConfig
                0x0800c7d8       0x2e ../stm32f4xx\libstm32f4xx.a(stm32f4xx_gpio.o)
                0x0800c7d8                GPIO_PinAFConfig
 *fill*         0x0800c806        0x2 00
 .text.RCC_DeInit
                0x0800c808       0x3c ../stm32f4xx\libstm32f4xx.a(stm32f4xx_rcc.o)
                0x0800c808                RCC_DeInit
 .text.RCC_HSEConfig
                0x0800c844       0x10 ../stm32f4xx\libstm32f4xx.a(stm32f4xx_rcc.o)
                0x0800c844                RCC_HSEConfig
 .text.RCC_AdjustHSICalibrationValue
                0x0800c854       0x14 ../stm32f4xx\libstm32f4xx.a(stm32f4xx_rcc.o)
                0x0800c854                RCC_AdjustHSICalibrationValue
 .text.RCC_HSICmd
                0x0800c868        0xc ../stm32f4xx\libstm32f4xx.a(stm32f4xx_rcc.o)
                0x0800c868                RCC_HSICmd
 .text.RCC_LSEConfig
                0x0800c874       0x20 ../stm32f4xx\libstm32f4xx.a(stm32f4xx_rcc.o)
                0x0800c874                RCC_LSEConfig
 .text.RCC_LSICmd
                0x0800c894        0xc ../stm32f4xx\libstm32f4xx.a(stm32f4xx_rcc.o)
                0x0800c894                RCC_LSICmd
 .text.RCC_PLLConfig
                0x0800c8a0       0x20 ../stm32f4xx\libstm32f4xx.a(stm32f4xx_rcc.o)
                0x0800c8a0                RCC_PLLConfig
 .text.RCC_PLLCmd
                0x0800c8c0        0xc ../stm32f4xx\libstm32f4xx.a(stm32f4xx_rcc.o)
                0x0800c8c0                RCC_PLLCmd
 .text.RCC_PLLI2SConfig
                0x0800c8cc       0x14 ../stm32f4xx\libstm32f4xx.a(stm32f4xx_rcc.o)
                0x0800c8cc                RCC_PLLI2SConfig
 .text.RCC_PLLI2SCmd
                0x0800c8e0        0xc ../stm32f4xx\libstm32f4xx.a(stm32f4xx_rcc.o)
                0x0800c8e0                RCC_PLLI2SCmd
 .text.RCC_ClockSecuritySystemCmd
                0x0800c8ec        0xc ../stm32f4xx\libstm32f4xx.a(stm32f4xx_rcc.o)
                0x0800c8ec                RCC_ClockSecuritySystemCmd
 .text.RCC_MCO1Config
                0x0800c8f8       0x14 ../stm32f4xx\libstm32f4xx.a(stm32f4xx_rcc.o)
                0x0800c8f8                RCC_MCO1Config
 .text.RCC_MCO2Config
                0x0800c90c       0x14 ../stm32f4xx\libstm32f4xx.a(stm32f4xx_rcc.o)
                0x0800c90c                RCC_MCO2Config
 .text.RCC_SYSCLKConfig
                0x0800c920       0x14 ../stm32f4xx\libstm32f4xx.a(stm32f4xx_rcc.o)
                0x0800c920                RCC_SYSCLKConfig
 .text.RCC_GetSYSCLKSource
                0x0800c934       0x10 ../stm32f4xx\libstm32f4xx.a(stm32f4xx_rcc.o)
                0x0800c934                RCC_GetSYSCLKSource
 .text.RCC_HCLKConfig
                0x0800c944       0x14 ../stm32f4xx\libstm32f4xx.a(stm32f4xx_rcc.o)
                0x0800c944                RCC_HCLKConfig
 .text.RCC_PCLK1Config
                0x0800c958       0x14 ../stm32f4xx\libstm32f4xx.a(stm32f4xx_rcc.o)
                0x0800c958                RCC_PCLK1Config
 .text.RCC_PCLK2Config
                0x0800c96c       0x14 ../stm32f4xx\libstm32f4xx.a(stm32f4xx_rcc.o)
                0x0800c96c                RCC_PCLK2Config
 .text.RCC_GetClocksFreq
                0x0800c980       0x90 ../stm32f4xx\libstm32f4xx.a(stm32f4xx_rcc.o)
                0x0800c980                RCC_GetClocksFreq
 .text.RCC_SetHSEFreq
                0x0800ca10        0xc ../stm32f4xx\libstm32f4xx.a(stm32f4xx_rcc.o)
                0x0800ca10                RCC_SetHSEFreq
 .text.RCC_RTCCLKConfig
                0x0800ca1c       0x30 ../stm32f4xx\libstm32f4xx.a(stm32f4xx_rcc.o)
                0x0800ca1c                RCC_RTCCLKConfig
 .text.RCC_RTCCLKCmd
                0x0800ca4c        0xc ../stm32f4xx\libstm32f4xx.a(stm32f4xx_rcc.o)
                0x0800ca4c                RCC_RTCCLKCmd
 .text.RCC_BackupResetCmd
                0x0800ca58        0xc ../stm32f4xx\libstm32f4xx.a(stm32f4xx_rcc.o)
                0x0800ca58                RCC_BackupResetCmd
 .text.RCC_I2SCLKConfig
                0x0800ca64        0xc ../stm32f4xx\libstm32f4xx.a(stm32f4xx_rcc.o)
                0x0800ca64                RCC_I2SCLKConfig
 .text.RCC_TIMCLKPresConfig
                0x0800ca70        0xc ../stm32f4xx\libstm32f4xx.a(stm32f4xx_rcc.o)
                0x0800ca70                RCC_TIMCLKPresConfig
 .text.RCC_AHB1PeriphClockCmd
                0x0800ca7c       0x18 ../stm32f4xx\libstm32f4xx.a(stm32f4xx_rcc.o)
                0x0800ca7c                RCC_AHB1PeriphClockCmd
 .text.RCC_AHB2PeriphClockCmd
                0x0800ca94       0x18 ../stm32f4xx\libstm32f4xx.a(stm32f4xx_rcc.o)
                0x0800ca94                RCC_AHB2PeriphClockCmd
 .text.RCC_AHB3PeriphClockCmd
                0x0800caac       0x18 ../stm32f4xx\libstm32f4xx.a(stm32f4xx_rcc.o)
                0x0800caac                RCC_AHB3PeriphClockCmd
 .text.RCC_APB1PeriphClockCmd
                0x0800cac4       0x18 ../stm32f4xx\libstm32f4xx.a(stm32f4xx_rcc.o)
                0x0800cac4                RCC_APB1PeriphClockCmd
 .text.RCC_APB2PeriphClockCmd
                0x0800cadc       0x18 ../stm32f4xx\libstm32f4xx.a(stm32f4xx_rcc.o)
                0x0800cadc                RCC_APB2PeriphClockCmd
 .text.RCC_AHB1PeriphResetCmd
                0x0800caf4       0x18 ../stm32f4xx\libstm32f4xx.a(stm32f4xx_rcc.o)
                0x0800caf4                RCC_AHB1PeriphResetCmd
 .text.RCC_AHB2PeriphResetCmd
                0x0800cb0c       0x18 ../stm32f4xx\libstm32f4xx.a(stm32f4xx_rcc.o)
                0x0800cb0c                RCC_AHB2PeriphResetCmd
 .text.RCC_AHB3PeriphResetCmd
                0x0800cb24       0x18 ../stm32f4xx\libstm32f4xx.a(stm32f4xx_rcc.o)
                0x0800cb24                RCC_AHB3PeriphResetCmd
 .text.RCC_APB1PeriphResetCmd
                0x0800cb3c       0x18 ../stm32f4xx\libstm32f4xx.a(stm32f4xx_rcc.o)
                0x0800cb3c                RCC_APB1PeriphResetCmd
 .text.RCC_APB2PeriphResetCmd
                0x0800cb54       0x18 ../stm32f4xx\libstm32f4xx.a(stm32f4xx_rcc.o)
                0x0800cb54                RCC_APB2PeriphResetCmd
 .text.RCC_AHB1PeriphClockLPModeCmd
                0x0800cb6c       0x18 ../stm32f4xx\libstm32f4xx.a(stm32f4xx_rcc.o)
                0x0800cb6c                RCC_AHB1PeriphClockLPModeCmd
 .text.RCC_AHB2PeriphClockLPModeCmd
                0x0800cb84       0x18 ../stm32f4xx\libstm32f4xx.a(stm32f4xx_rcc.o)
                0x0800cb84                RCC_AHB2PeriphClockLPModeCmd
 .text.RCC_AHB3PeriphClockLPModeCmd
                0x0800cb9c       0x18 ../stm32f4xx\libstm32f4xx.a(stm32f4xx_rcc.o)
                0x0800cb9c                RCC_AHB3PeriphClockLPModeCmd
 .text.RCC_APB1PeriphClockLPModeCmd
                0x0800cbb4       0x18 ../stm32f4xx\libstm32f4xx.a(stm32f4xx_rcc.o)
                0x0800cbb4                RCC_APB1PeriphClockLPModeCmd
 .text.RCC_APB2PeriphClockLPModeCmd
                0x0800cbcc       0x18 ../stm32f4xx\libstm32f4xx.a(stm32f4xx_rcc.o)
                0x0800cbcc                RCC_APB2PeriphClockLPModeCmd
 .text.RCC_ITConfig
                0x0800cbe4       0x18 ../stm32f4xx\libstm32f4xx.a(stm32f4xx_rcc.o)
                0x0800cbe4                RCC_ITConfig
 .text.RCC_GetFlagStatus
                0x0800cbfc       0x28 ../stm32f4xx\libstm32f4xx.a(stm32f4xx_rcc.o)
                0x0800cbfc                RCC_GetFlagStatus
 .text.RCC_WaitForHSEStartUp
                0x0800cc24       0x2c ../stm32f4xx\libstm32f4xx.a(stm32f4xx_rcc.o)
                0x0800cc24                RCC_WaitForHSEStartUp
 .text.RCC_ClearFlag
                0x0800cc50       0x10 ../stm32f4xx\libstm32f4xx.a(stm32f4xx_rcc.o)
                0x0800cc50                RCC_ClearFlag
 .text.RCC_GetITStatus
                0x0800cc60       0x14 ../stm32f4xx\libstm32f4xx.a(stm32f4xx_rcc.o)
                0x0800cc60                RCC_GetITStatus
 .text.RCC_ClearITPendingBit
                0x0800cc74        0xc ../stm32f4xx\libstm32f4xx.a(stm32f4xx_rcc.o)
                0x0800cc74                RCC_ClearITPendingBit
 .text.SYSCFG_DeInit
                0x0800cc80       0x1a ../stm32f4xx\libstm32f4xx.a(stm32f4xx_syscfg.o)
                0x0800cc80                SYSCFG_DeInit
 *fill*         0x0800cc9a        0x2 00
 .text.SYSCFG_MemoryRemapConfig
                0x0800cc9c        0xc ../stm32f4xx\libstm32f4xx.a(stm32f4xx_syscfg.o)
                0x0800cc9c                SYSCFG_MemoryRemapConfig
 .text.SYSCFG_EXTILineConfig
                0x0800cca8       0x34 ../stm32f4xx\libstm32f4xx.a(stm32f4xx_syscfg.o)
                0x0800cca8                SYSCFG_EXTILineConfig
 .text.SYSCFG_ETH_MediaInterfaceConfig
                0x0800ccdc        0xc ../stm32f4xx\libstm32f4xx.a(stm32f4xx_syscfg.o)
                0x0800ccdc                SYSCFG_ETH_MediaInterfaceConfig
 .text.SYSCFG_CompensationCellCmd
                0x0800cce8        0xc ../stm32f4xx\libstm32f4xx.a(stm32f4xx_syscfg.o)
                0x0800cce8                SYSCFG_CompensationCellCmd
 .text.SYSCFG_GetCompensationCellStatus
                0x0800ccf4       0x10 ../stm32f4xx\libstm32f4xx.a(stm32f4xx_syscfg.o)
                0x0800ccf4                SYSCFG_GetCompensationCellStatus
 .text.TI1_Config
                0x0800cd04       0x32 ../stm32f4xx\libstm32f4xx.a(stm32f4xx_tim.o)
 .text.TI2_Config
                0x0800cd36       0x3a ../stm32f4xx\libstm32f4xx.a(stm32f4xx_tim.o)
 .text.TIM_DeInit
                0x0800cd70      0x154 ../stm32f4xx\libstm32f4xx.a(stm32f4xx_tim.o)
                0x0800cd70                TIM_DeInit
 .text.TIM_TimeBaseInit
                0x0800cec4       0x7c ../stm32f4xx\libstm32f4xx.a(stm32f4xx_tim.o)
                0x0800cec4                TIM_TimeBaseInit
 .text.TIM_TimeBaseStructInit
                0x0800cf40       0x12 ../stm32f4xx\libstm32f4xx.a(stm32f4xx_tim.o)
                0x0800cf40                TIM_TimeBaseStructInit
 .text.TIM_PrescalerConfig
                0x0800cf52        0x6 ../stm32f4xx\libstm32f4xx.a(stm32f4xx_tim.o)
                0x0800cf52                TIM_PrescalerConfig
 .text.TIM_CounterModeConfig
                0x0800cf58       0x10 ../stm32f4xx\libstm32f4xx.a(stm32f4xx_tim.o)
                0x0800cf58                TIM_CounterModeConfig
 .text.TIM_SetCounter
                0x0800cf68        0x4 ../stm32f4xx\libstm32f4xx.a(stm32f4xx_tim.o)
                0x0800cf68                TIM_SetCounter
 .text.TIM_SetAutoreload
                0x0800cf6c        0x4 ../stm32f4xx\libstm32f4xx.a(stm32f4xx_tim.o)
                0x0800cf6c                TIM_SetAutoreload
 .text.TIM_GetCounter
                0x0800cf70        0x4 ../stm32f4xx\libstm32f4xx.a(stm32f4xx_tim.o)
                0x0800cf70                TIM_GetCounter
 .text.TIM_GetPrescaler
                0x0800cf74        0x6 ../stm32f4xx\libstm32f4xx.a(stm32f4xx_tim.o)
                0x0800cf74                TIM_GetPrescaler
 .text.TIM_UpdateDisableConfig
                0x0800cf7a       0x18 ../stm32f4xx\libstm32f4xx.a(stm32f4xx_tim.o)
                0x0800cf7a                TIM_UpdateDisableConfig
 .text.TIM_UpdateRequestConfig
                0x0800cf92       0x18 ../stm32f4xx\libstm32f4xx.a(stm32f4xx_tim.o)
                0x0800cf92                TIM_UpdateRequestConfig
 .text.TIM_ARRPreloadConfig
                0x0800cfaa       0x18 ../stm32f4xx\libstm32f4xx.a(stm32f4xx_tim.o)
                0x0800cfaa                TIM_ARRPreloadConfig
 .text.TIM_SelectOnePulseMode
                0x0800cfc2       0x16 ../stm32f4xx\libstm32f4xx.a(stm32f4xx_tim.o)
                0x0800cfc2                TIM_SelectOnePulseMode
 .text.TIM_SetClockDivision
                0x0800cfd8       0x16 ../stm32f4xx\libstm32f4xx.a(stm32f4xx_tim.o)
                0x0800cfd8                TIM_SetClockDivision
 .text.TIM_Cmd  0x0800cfee       0x18 ../stm32f4xx\libstm32f4xx.a(stm32f4xx_tim.o)
                0x0800cfee                TIM_Cmd
 *fill*         0x0800d006        0x2 00
 .text.TIM_OC1Init
                0x0800d008       0x70 ../stm32f4xx\libstm32f4xx.a(stm32f4xx_tim.o)
                0x0800d008                TIM_OC1Init
 .text.TIM_OC2Init
                0x0800d078       0x88 ../stm32f4xx\libstm32f4xx.a(stm32f4xx_tim.o)
                0x0800d078                TIM_OC2Init
 .text.TIM_OC3Init
                0x0800d100       0x84 ../stm32f4xx\libstm32f4xx.a(stm32f4xx_tim.o)
                0x0800d100                TIM_OC3Init
 .text.TIM_OC4Init
                0x0800d184       0x68 ../stm32f4xx\libstm32f4xx.a(stm32f4xx_tim.o)
                0x0800d184                TIM_OC4Init
 .text.TIM_OCStructInit
                0x0800d1ec       0x14 ../stm32f4xx\libstm32f4xx.a(stm32f4xx_tim.o)
                0x0800d1ec                TIM_OCStructInit
 .text.TIM_SelectOCxM
                0x0800d200       0x48 ../stm32f4xx\libstm32f4xx.a(stm32f4xx_tim.o)
                0x0800d200                TIM_SelectOCxM
 .text.TIM_SetCompare1
                0x0800d248        0x4 ../stm32f4xx\libstm32f4xx.a(stm32f4xx_tim.o)
                0x0800d248                TIM_SetCompare1
 .text.TIM_SetCompare2
                0x0800d24c        0x4 ../stm32f4xx\libstm32f4xx.a(stm32f4xx_tim.o)
                0x0800d24c                TIM_SetCompare2
 .text.TIM_SetCompare3
                0x0800d250        0x4 ../stm32f4xx\libstm32f4xx.a(stm32f4xx_tim.o)
                0x0800d250                TIM_SetCompare3
 .text.TIM_SetCompare4
                0x0800d254        0x4 ../stm32f4xx\libstm32f4xx.a(stm32f4xx_tim.o)
                0x0800d254                TIM_SetCompare4
 .text.TIM_ForcedOC1Config
                0x0800d258       0x10 ../stm32f4xx\libstm32f4xx.a(stm32f4xx_tim.o)
                0x0800d258                TIM_ForcedOC1Config
 .text.TIM_ForcedOC2Config
                0x0800d268       0x14 ../stm32f4xx\libstm32f4xx.a(stm32f4xx_tim.o)
                0x0800d268                TIM_ForcedOC2Config
 .text.TIM_ForcedOC3Config
                0x0800d27c       0x10 ../stm32f4xx\libstm32f4xx.a(stm32f4xx_tim.o)
                0x0800d27c                TIM_ForcedOC3Config
 .text.TIM_ForcedOC4Config
                0x0800d28c       0x14 ../stm32f4xx\libstm32f4xx.a(stm32f4xx_tim.o)
                0x0800d28c                TIM_ForcedOC4Config
 .text.TIM_OC1PreloadConfig
                0x0800d2a0       0x10 ../stm32f4xx\libstm32f4xx.a(stm32f4xx_tim.o)
                0x0800d2a0                TIM_OC1PreloadConfig
 .text.TIM_OC2PreloadConfig
                0x0800d2b0       0x14 ../stm32f4xx\libstm32f4xx.a(stm32f4xx_tim.o)
                0x0800d2b0                TIM_OC2PreloadConfig
 .text.TIM_OC3PreloadConfig
                0x0800d2c4       0x10 ../stm32f4xx\libstm32f4xx.a(stm32f4xx_tim.o)
                0x0800d2c4                TIM_OC3PreloadConfig
 .text.TIM_OC4PreloadConfig
                0x0800d2d4       0x14 ../stm32f4xx\libstm32f4xx.a(stm32f4xx_tim.o)
                0x0800d2d4                TIM_OC4PreloadConfig
 .text.TIM_OC1FastConfig
                0x0800d2e8       0x10 ../stm32f4xx\libstm32f4xx.a(stm32f4xx_tim.o)
                0x0800d2e8                TIM_OC1FastConfig
 .text.TIM_OC2FastConfig
                0x0800d2f8       0x14 ../stm32f4xx\libstm32f4xx.a(stm32f4xx_tim.o)
                0x0800d2f8                TIM_OC2FastConfig
 .text.TIM_OC3FastConfig
                0x0800d30c       0x10 ../stm32f4xx\libstm32f4xx.a(stm32f4xx_tim.o)
                0x0800d30c                TIM_OC3FastConfig
 .text.TIM_OC4FastConfig
                0x0800d31c       0x14 ../stm32f4xx\libstm32f4xx.a(stm32f4xx_tim.o)
                0x0800d31c                TIM_OC4FastConfig
 .text.TIM_ClearOC1Ref
                0x0800d330       0x10 ../stm32f4xx\libstm32f4xx.a(stm32f4xx_tim.o)
                0x0800d330                TIM_ClearOC1Ref
 .text.TIM_ClearOC2Ref
                0x0800d340       0x10 ../stm32f4xx\libstm32f4xx.a(stm32f4xx_tim.o)
                0x0800d340                TIM_ClearOC2Ref
 .text.TIM_ClearOC3Ref
                0x0800d350       0x10 ../stm32f4xx\libstm32f4xx.a(stm32f4xx_tim.o)
                0x0800d350                TIM_ClearOC3Ref
 .text.TIM_ClearOC4Ref
                0x0800d360       0x10 ../stm32f4xx\libstm32f4xx.a(stm32f4xx_tim.o)
                0x0800d360                TIM_ClearOC4Ref
 .text.TIM_OC1PolarityConfig
                0x0800d370       0x10 ../stm32f4xx\libstm32f4xx.a(stm32f4xx_tim.o)
                0x0800d370                TIM_OC1PolarityConfig
 .text.TIM_OC1NPolarityConfig
                0x0800d380       0x10 ../stm32f4xx\libstm32f4xx.a(stm32f4xx_tim.o)
                0x0800d380                TIM_OC1NPolarityConfig
 .text.TIM_OC2PolarityConfig
                0x0800d390       0x14 ../stm32f4xx\libstm32f4xx.a(stm32f4xx_tim.o)
                0x0800d390                TIM_OC2PolarityConfig
 .text.TIM_OC2NPolarityConfig
                0x0800d3a4       0x14 ../stm32f4xx\libstm32f4xx.a(stm32f4xx_tim.o)
                0x0800d3a4                TIM_OC2NPolarityConfig
 .text.TIM_OC3PolarityConfig
                0x0800d3b8       0x14 ../stm32f4xx\libstm32f4xx.a(stm32f4xx_tim.o)
                0x0800d3b8                TIM_OC3PolarityConfig
 .text.TIM_OC3NPolarityConfig
                0x0800d3cc       0x14 ../stm32f4xx\libstm32f4xx.a(stm32f4xx_tim.o)
                0x0800d3cc                TIM_OC3NPolarityConfig
 .text.TIM_OC4PolarityConfig
                0x0800d3e0       0x14 ../stm32f4xx\libstm32f4xx.a(stm32f4xx_tim.o)
                0x0800d3e0                TIM_OC4PolarityConfig
 .text.TIM_CCxCmd
                0x0800d3f4       0x22 ../stm32f4xx\libstm32f4xx.a(stm32f4xx_tim.o)
                0x0800d3f4                TIM_CCxCmd
 .text.TIM_CCxNCmd
                0x0800d416       0x22 ../stm32f4xx\libstm32f4xx.a(stm32f4xx_tim.o)
                0x0800d416                TIM_CCxNCmd
 .text.TIM_ICStructInit
                0x0800d438       0x10 ../stm32f4xx\libstm32f4xx.a(stm32f4xx_tim.o)
                0x0800d438                TIM_ICStructInit
 .text.TIM_GetCapture1
                0x0800d448        0x4 ../stm32f4xx\libstm32f4xx.a(stm32f4xx_tim.o)
                0x0800d448                TIM_GetCapture1
 .text.TIM_GetCapture2
                0x0800d44c        0x4 ../stm32f4xx\libstm32f4xx.a(stm32f4xx_tim.o)
                0x0800d44c                TIM_GetCapture2
 .text.TIM_GetCapture3
                0x0800d450        0x4 ../stm32f4xx\libstm32f4xx.a(stm32f4xx_tim.o)
                0x0800d450                TIM_GetCapture3
 .text.TIM_GetCapture4
                0x0800d454        0x4 ../stm32f4xx\libstm32f4xx.a(stm32f4xx_tim.o)
                0x0800d454                TIM_GetCapture4
 .text.TIM_SetIC1Prescaler
                0x0800d458       0x16 ../stm32f4xx\libstm32f4xx.a(stm32f4xx_tim.o)
                0x0800d458                TIM_SetIC1Prescaler
 .text.TIM_SetIC2Prescaler
                0x0800d46e       0x1a ../stm32f4xx\libstm32f4xx.a(stm32f4xx_tim.o)
                0x0800d46e                TIM_SetIC2Prescaler
 .text.TIM_PWMIConfig
                0x0800d488       0x6e ../stm32f4xx\libstm32f4xx.a(stm32f4xx_tim.o)
                0x0800d488                TIM_PWMIConfig
 .text.TIM_SetIC3Prescaler
                0x0800d4f6       0x16 ../stm32f4xx\libstm32f4xx.a(stm32f4xx_tim.o)
                0x0800d4f6                TIM_SetIC3Prescaler
 .text.TIM_SetIC4Prescaler
                0x0800d50c       0x1a ../stm32f4xx\libstm32f4xx.a(stm32f4xx_tim.o)
                0x0800d50c                TIM_SetIC4Prescaler
 .text.TIM_ICInit
                0x0800d526       0xbe ../stm32f4xx\libstm32f4xx.a(stm32f4xx_tim.o)
                0x0800d526                TIM_ICInit
 .text.TIM_BDTRConfig
                0x0800d5e4       0x22 ../stm32f4xx\libstm32f4xx.a(stm32f4xx_tim.o)
                0x0800d5e4                TIM_BDTRConfig
 .text.TIM_BDTRStructInit
                0x0800d606       0x12 ../stm32f4xx\libstm32f4xx.a(stm32f4xx_tim.o)
                0x0800d606                TIM_BDTRStructInit
 .text.TIM_CtrlPWMOutputs
                0x0800d618       0x1c ../stm32f4xx\libstm32f4xx.a(stm32f4xx_tim.o)
                0x0800d618                TIM_CtrlPWMOutputs
 .text.TIM_SelectCOM
                0x0800d634       0x18 ../stm32f4xx\libstm32f4xx.a(stm32f4xx_tim.o)
                0x0800d634                TIM_SelectCOM
 .text.TIM_CCPreloadControl
                0x0800d64c       0x18 ../stm32f4xx\libstm32f4xx.a(stm32f4xx_tim.o)
                0x0800d64c                TIM_CCPreloadControl
 .text.TIM_ITConfig
                0x0800d664       0x12 ../stm32f4xx\libstm32f4xx.a(stm32f4xx_tim.o)
                0x0800d664                TIM_ITConfig
 .text.TIM_GenerateEvent
                0x0800d676        0x4 ../stm32f4xx\libstm32f4xx.a(stm32f4xx_tim.o)
                0x0800d676                TIM_GenerateEvent
 .text.TIM_GetFlagStatus
                0x0800d67a        0xc ../stm32f4xx\libstm32f4xx.a(stm32f4xx_tim.o)
                0x0800d67a                TIM_GetFlagStatus
 .text.TIM_ClearFlag
                0x0800d686        0x8 ../stm32f4xx\libstm32f4xx.a(stm32f4xx_tim.o)
                0x0800d686                TIM_ClearFlag
 .text.TIM_GetITStatus
                0x0800d68e       0x16 ../stm32f4xx\libstm32f4xx.a(stm32f4xx_tim.o)
                0x0800d68e                TIM_GetITStatus
 .text.TIM_ClearITPendingBit
                0x0800d6a4        0x8 ../stm32f4xx\libstm32f4xx.a(stm32f4xx_tim.o)
                0x0800d6a4                TIM_ClearITPendingBit
 .text.TIM_DMAConfig
                0x0800d6ac        0x8 ../stm32f4xx\libstm32f4xx.a(stm32f4xx_tim.o)
                0x0800d6ac                TIM_DMAConfig
 .text.TIM_DMACmd
                0x0800d6b4       0x12 ../stm32f4xx\libstm32f4xx.a(stm32f4xx_tim.o)
                0x0800d6b4                TIM_DMACmd
 .text.TIM_SelectCCDMA
                0x0800d6c6       0x18 ../stm32f4xx\libstm32f4xx.a(stm32f4xx_tim.o)
                0x0800d6c6                TIM_SelectCCDMA
 .text.TIM_InternalClockConfig
                0x0800d6de        0xe ../stm32f4xx\libstm32f4xx.a(stm32f4xx_tim.o)
                0x0800d6de                TIM_InternalClockConfig
 .text.TIM_ITRxExternalClockConfig
                0x0800d6ec       0x1a ../stm32f4xx\libstm32f4xx.a(stm32f4xx_tim.o)
                0x0800d6ec                TIM_ITRxExternalClockConfig
 .text.TIM_TIxExternalClockConfig
                0x0800d706       0x34 ../stm32f4xx\libstm32f4xx.a(stm32f4xx_tim.o)
                0x0800d706                TIM_TIxExternalClockConfig
 .text.TIM_SelectInputTrigger
                0x0800d73a       0x10 ../stm32f4xx\libstm32f4xx.a(stm32f4xx_tim.o)
                0x0800d73a                TIM_SelectInputTrigger
 .text.TIM_SelectOutputTrigger
                0x0800d74a       0x16 ../stm32f4xx\libstm32f4xx.a(stm32f4xx_tim.o)
                0x0800d74a                TIM_SelectOutputTrigger
 .text.TIM_SelectSlaveMode
                0x0800d760       0x16 ../stm32f4xx\libstm32f4xx.a(stm32f4xx_tim.o)
                0x0800d760                TIM_SelectSlaveMode
 .text.TIM_SelectMasterSlaveMode
                0x0800d776       0x16 ../stm32f4xx\libstm32f4xx.a(stm32f4xx_tim.o)
                0x0800d776                TIM_SelectMasterSlaveMode
 .text.TIM_ETRConfig
                0x0800d78c       0x14 ../stm32f4xx\libstm32f4xx.a(stm32f4xx_tim.o)
                0x0800d78c                TIM_ETRConfig
 .text.TIM_ETRClockMode2Config
                0x0800d7a0       0x14 ../stm32f4xx\libstm32f4xx.a(stm32f4xx_tim.o)
                0x0800d7a0                TIM_ETRClockMode2Config
 .text.TIM_ETRClockMode1Config
                0x0800d7b4       0x1a ../stm32f4xx\libstm32f4xx.a(stm32f4xx_tim.o)
                0x0800d7b4                TIM_ETRClockMode1Config
 .text.TIM_EncoderInterfaceConfig
                0x0800d7ce       0x3c ../stm32f4xx\libstm32f4xx.a(stm32f4xx_tim.o)
                0x0800d7ce                TIM_EncoderInterfaceConfig
 .text.TIM_SelectHallSensor
                0x0800d80a       0x18 ../stm32f4xx\libstm32f4xx.a(stm32f4xx_tim.o)
                0x0800d80a                TIM_SelectHallSensor
 .text.TIM_RemapConfig
                0x0800d822        0x6 ../stm32f4xx\libstm32f4xx.a(stm32f4xx_tim.o)
                0x0800d822                TIM_RemapConfig
 .text.USART_DeInit
                0x0800d828       0xdc ../stm32f4xx\libstm32f4xx.a(stm32f4xx_usart.o)
                0x0800d828                USART_DeInit
 .text.USART_Init
                0x0800d904       0xb8 ../stm32f4xx\libstm32f4xx.a(stm32f4xx_usart.o)
                0x0800d904                USART_Init
 .text.USART_StructInit
                0x0800d9bc       0x16 ../stm32f4xx\libstm32f4xx.a(stm32f4xx_usart.o)
                0x0800d9bc                USART_StructInit
 .text.USART_ClockInit
                0x0800d9d2       0x20 ../stm32f4xx\libstm32f4xx.a(stm32f4xx_usart.o)
                0x0800d9d2                USART_ClockInit
 .text.USART_ClockStructInit
                0x0800d9f2        0xc ../stm32f4xx\libstm32f4xx.a(stm32f4xx_usart.o)
                0x0800d9f2                USART_ClockStructInit
 .text.USART_Cmd
                0x0800d9fe       0x18 ../stm32f4xx\libstm32f4xx.a(stm32f4xx_usart.o)
                0x0800d9fe                USART_Cmd
 .text.USART_SetPrescaler
                0x0800da16       0x12 ../stm32f4xx\libstm32f4xx.a(stm32f4xx_usart.o)
                0x0800da16                USART_SetPrescaler
 .text.USART_OverSampling8Cmd
                0x0800da28       0x18 ../stm32f4xx\libstm32f4xx.a(stm32f4xx_usart.o)
                0x0800da28                USART_OverSampling8Cmd
 .text.USART_OneBitMethodCmd
                0x0800da40       0x18 ../stm32f4xx\libstm32f4xx.a(stm32f4xx_usart.o)
                0x0800da40                USART_OneBitMethodCmd
 .text.USART_SendData
                0x0800da58        0x8 ../stm32f4xx\libstm32f4xx.a(stm32f4xx_usart.o)
                0x0800da58                USART_SendData
 .text.USART_ReceiveData
                0x0800da60        0x8 ../stm32f4xx\libstm32f4xx.a(stm32f4xx_usart.o)
                0x0800da60                USART_ReceiveData
 .text.USART_SetAddress
                0x0800da68       0x16 ../stm32f4xx\libstm32f4xx.a(stm32f4xx_usart.o)
                0x0800da68                USART_SetAddress
 .text.USART_ReceiverWakeUpCmd
                0x0800da7e       0x18 ../stm32f4xx\libstm32f4xx.a(stm32f4xx_usart.o)
                0x0800da7e                USART_ReceiverWakeUpCmd
 .text.USART_WakeUpConfig
                0x0800da96       0x16 ../stm32f4xx\libstm32f4xx.a(stm32f4xx_usart.o)
                0x0800da96                USART_WakeUpConfig
 .text.USART_LINBreakDetectLengthConfig
                0x0800daac       0x16 ../stm32f4xx\libstm32f4xx.a(stm32f4xx_usart.o)
                0x0800daac                USART_LINBreakDetectLengthConfig
 .text.USART_LINCmd
                0x0800dac2       0x18 ../stm32f4xx\libstm32f4xx.a(stm32f4xx_usart.o)
                0x0800dac2                USART_LINCmd
 .text.USART_SendBreak
                0x0800dada        0xc ../stm32f4xx\libstm32f4xx.a(stm32f4xx_usart.o)
                0x0800dada                USART_SendBreak
 .text.USART_HalfDuplexCmd
                0x0800dae6       0x18 ../stm32f4xx\libstm32f4xx.a(stm32f4xx_usart.o)
                0x0800dae6                USART_HalfDuplexCmd
 .text.USART_SetGuardTime
                0x0800dafe       0x12 ../stm32f4xx\libstm32f4xx.a(stm32f4xx_usart.o)
                0x0800dafe                USART_SetGuardTime
 .text.USART_SmartCardCmd
                0x0800db10       0x18 ../stm32f4xx\libstm32f4xx.a(stm32f4xx_usart.o)
                0x0800db10                USART_SmartCardCmd
 .text.USART_SmartCardNACKCmd
                0x0800db28       0x18 ../stm32f4xx\libstm32f4xx.a(stm32f4xx_usart.o)
                0x0800db28                USART_SmartCardNACKCmd
 .text.USART_IrDAConfig
                0x0800db40       0x16 ../stm32f4xx\libstm32f4xx.a(stm32f4xx_usart.o)
                0x0800db40                USART_IrDAConfig
 .text.USART_IrDACmd
                0x0800db56       0x18 ../stm32f4xx\libstm32f4xx.a(stm32f4xx_usart.o)
                0x0800db56                USART_IrDACmd
 .text.USART_DMACmd
                0x0800db6e       0x12 ../stm32f4xx\libstm32f4xx.a(stm32f4xx_usart.o)
                0x0800db6e                USART_DMACmd
 .text.USART_ITConfig
                0x0800db80       0x34 ../stm32f4xx\libstm32f4xx.a(stm32f4xx_usart.o)
                0x0800db80                USART_ITConfig
 .text.USART_GetFlagStatus
                0x0800dbb4        0xc ../stm32f4xx\libstm32f4xx.a(stm32f4xx_usart.o)
                0x0800dbb4                USART_GetFlagStatus
 .text.USART_ClearFlag
                0x0800dbc0        0x8 ../stm32f4xx\libstm32f4xx.a(stm32f4xx_usart.o)
                0x0800dbc0                USART_ClearFlag
 .text.USART_GetITStatus
                0x0800dbc8       0x40 ../stm32f4xx\libstm32f4xx.a(stm32f4xx_usart.o)
                0x0800dbc8                USART_GetITStatus
 .text.USART_ClearITPendingBit
                0x0800dc08       0x10 ../stm32f4xx\libstm32f4xx.a(stm32f4xx_usart.o)
                0x0800dc08                USART_ClearITPendingBit
 .text.SystemInit
                0x0800dc18       0xec ../stm32f4xx\libstm32f4xx.a(system_stm32f4xx.o)
                0x0800dc18                SystemInit
 .text.SystemCoreClockUpdate
                0x0800dd04       0x7c ../stm32f4xx\libstm32f4xx.a(system_stm32f4xx.o)
                0x0800dd04                SystemCoreClockUpdate
 .text.__errno  0x0800dd80        0xc c:/program files (x86)/eclipse-arm-eseo/gcc-arm-none-eabi-4_7-2013q2-20130614-win32/gnu tools arm embedded/4.7 2013q2/bin/../lib/gcc/arm-none-eabi/4.7.4/../../../../arm-none-eabi/lib/armv7e-m\libg.a(lib_a-errno.o)
                0x0800dd80                __errno
 .text._printf_r
                0x0800dd8c       0x20 c:/program files (x86)/eclipse-arm-eseo/gcc-arm-none-eabi-4_7-2013q2-20130614-win32/gnu tools arm embedded/4.7 2013q2/bin/../lib/gcc/arm-none-eabi/4.7.4/../../../../arm-none-eabi/lib/armv7e-m\libg.a(lib_a-printf.o)
                0x0800dd8c                _printf_r
 .text.printf   0x0800ddac       0x28 c:/program files (x86)/eclipse-arm-eseo/gcc-arm-none-eabi-4_7-2013q2-20130614-win32/gnu tools arm embedded/4.7 2013q2/bin/../lib/gcc/arm-none-eabi/4.7.4/../../../../arm-none-eabi/lib/armv7e-m\libg.a(lib_a-printf.o)
                0x0800ddac                printf
 .text.setvbuf  0x0800ddd4      0x110 c:/program files (x86)/eclipse-arm-eseo/gcc-arm-none-eabi-4_7-2013q2-20130614-win32/gnu tools arm embedded/4.7 2013q2/bin/../lib/gcc/arm-none-eabi/4.7.4/../../../../arm-none-eabi/lib/armv7e-m\libg.a(lib_a-setvbuf.o)
                0x0800ddd4                setvbuf
 .text._vfprintf_r
                0x0800dee4     0x1cc8 c:/program files (x86)/eclipse-arm-eseo/gcc-arm-none-eabi-4_7-2013q2-20130614-win32/gnu tools arm embedded/4.7 2013q2/bin/../lib/gcc/arm-none-eabi/4.7.4/../../../../arm-none-eabi/lib/armv7e-m\libg.a(lib_a-vfprintf.o)
                0x0800dee4                _vfprintf_r
 .text.__sbprintf
                0x0800fbac       0x78 c:/program files (x86)/eclipse-arm-eseo/gcc-arm-none-eabi-4_7-2013q2-20130614-win32/gnu tools arm embedded/4.7 2013q2/bin/../lib/gcc/arm-none-eabi/4.7.4/../../../../arm-none-eabi/lib/armv7e-m\libg.a(lib_a-vfprintf.o)
 .text.vfprintf
                0x0800fc24       0x1c c:/program files (x86)/eclipse-arm-eseo/gcc-arm-none-eabi-4_7-2013q2-20130614-win32/gnu tools arm embedded/4.7 2013q2/bin/../lib/gcc/arm-none-eabi/4.7.4/../../../../arm-none-eabi/lib/armv7e-m\libg.a(lib_a-vfprintf.o)
                0x0800fc24                vfprintf
 .text.vprintf  0x0800fc40       0x14 c:/program files (x86)/eclipse-arm-eseo/gcc-arm-none-eabi-4_7-2013q2-20130614-win32/gnu tools arm embedded/4.7 2013q2/bin/../lib/gcc/arm-none-eabi/4.7.4/../../../../arm-none-eabi/lib/armv7e-m\libg.a(lib_a-vprintf.o)
                0x0800fc40                vprintf
 .text._vprintf_r
                0x0800fc54       0x10 c:/program files (x86)/eclipse-arm-eseo/gcc-arm-none-eabi-4_7-2013q2-20130614-win32/gnu tools arm embedded/4.7 2013q2/bin/../lib/gcc/arm-none-eabi/4.7.4/../../../../arm-none-eabi/lib/armv7e-m\libg.a(lib_a-vprintf.o)
                0x0800fc54                _vprintf_r
 .text.__swsetup_r
                0x0800fc64       0xc4 c:/program files (x86)/eclipse-arm-eseo/gcc-arm-none-eabi-4_7-2013q2-20130614-win32/gnu tools arm embedded/4.7 2013q2/bin/../lib/gcc/arm-none-eabi/4.7.4/../../../../arm-none-eabi/lib/armv7e-m\libg.a(lib_a-wsetup.o)
                0x0800fc64                __swsetup_r
 .text.quorem   0x0800fd28      0x2ec c:/program files (x86)/eclipse-arm-eseo/gcc-arm-none-eabi-4_7-2013q2-20130614-win32/gnu tools arm embedded/4.7 2013q2/bin/../lib/gcc/arm-none-eabi/4.7.4/../../../../arm-none-eabi/lib/armv7e-m\libg.a(lib_a-dtoa.o)
 *fill*         0x08010014        0x4 00
 .text._dtoa_r  0x08010018     0x1258 c:/program files (x86)/eclipse-arm-eseo/gcc-arm-none-eabi-4_7-2013q2-20130614-win32/gnu tools arm embedded/4.7 2013q2/bin/../lib/gcc/arm-none-eabi/4.7.4/../../../../arm-none-eabi/lib/armv7e-m\libg.a(lib_a-dtoa.o)
                0x08010018                _dtoa_r
 .text._fflush_r
                0x08011270      0x168 c:/program files (x86)/eclipse-arm-eseo/gcc-arm-none-eabi-4_7-2013q2-20130614-win32/gnu tools arm embedded/4.7 2013q2/bin/../lib/gcc/arm-none-eabi/4.7.4/../../../../arm-none-eabi/lib/armv7e-m\libg.a(lib_a-fflush.o)
                0x08011270                _fflush_r
 .text.fflush   0x080113d8       0x24 c:/program files (x86)/eclipse-arm-eseo/gcc-arm-none-eabi-4_7-2013q2-20130614-win32/gnu tools arm embedded/4.7 2013q2/bin/../lib/gcc/arm-none-eabi/4.7.4/../../../../arm-none-eabi/lib/armv7e-m\libg.a(lib_a-fflush.o)
                0x080113d8                fflush
 .text.__fp_lock
                0x080113fc        0x4 c:/program files (x86)/eclipse-arm-eseo/gcc-arm-none-eabi-4_7-2013q2-20130614-win32/gnu tools arm embedded/4.7 2013q2/bin/../lib/gcc/arm-none-eabi/4.7.4/../../../../arm-none-eabi/lib/armv7e-m\libg.a(lib_a-findfp.o)
 .text.__fp_unlock
                0x08011400        0x4 c:/program files (x86)/eclipse-arm-eseo/gcc-arm-none-eabi-4_7-2013q2-20130614-win32/gnu tools arm embedded/4.7 2013q2/bin/../lib/gcc/arm-none-eabi/4.7.4/../../../../arm-none-eabi/lib/armv7e-m\libg.a(lib_a-findfp.o)
 .text._cleanup_r
                0x08011404        0xc c:/program files (x86)/eclipse-arm-eseo/gcc-arm-none-eabi-4_7-2013q2-20130614-win32/gnu tools arm embedded/4.7 2013q2/bin/../lib/gcc/arm-none-eabi/4.7.4/../../../../arm-none-eabi/lib/armv7e-m\libg.a(lib_a-findfp.o)
                0x08011404                _cleanup_r
 .text.std.isra.0
                0x08011410       0x50 c:/program files (x86)/eclipse-arm-eseo/gcc-arm-none-eabi-4_7-2013q2-20130614-win32/gnu tools arm embedded/4.7 2013q2/bin/../lib/gcc/arm-none-eabi/4.7.4/../../../../arm-none-eabi/lib/armv7e-m\libg.a(lib_a-findfp.o)
 .text.__sfmoreglue
                0x08011460       0x2c c:/program files (x86)/eclipse-arm-eseo/gcc-arm-none-eabi-4_7-2013q2-20130614-win32/gnu tools arm embedded/4.7 2013q2/bin/../lib/gcc/arm-none-eabi/4.7.4/../../../../arm-none-eabi/lib/armv7e-m\libg.a(lib_a-findfp.o)
                0x08011460                __sfmoreglue
 .text._cleanup
                0x0801148c       0x10 c:/program files (x86)/eclipse-arm-eseo/gcc-arm-none-eabi-4_7-2013q2-20130614-win32/gnu tools arm embedded/4.7 2013q2/bin/../lib/gcc/arm-none-eabi/4.7.4/../../../../arm-none-eabi/lib/armv7e-m\libg.a(lib_a-findfp.o)
                0x0801148c                _cleanup
 .text.__sinit  0x0801149c       0x4c c:/program files (x86)/eclipse-arm-eseo/gcc-arm-none-eabi-4_7-2013q2-20130614-win32/gnu tools arm embedded/4.7 2013q2/bin/../lib/gcc/arm-none-eabi/4.7.4/../../../../arm-none-eabi/lib/armv7e-m\libg.a(lib_a-findfp.o)
                0x0801149c                __sinit
 .text.__sfp    0x080114e8       0xa4 c:/program files (x86)/eclipse-arm-eseo/gcc-arm-none-eabi-4_7-2013q2-20130614-win32/gnu tools arm embedded/4.7 2013q2/bin/../lib/gcc/arm-none-eabi/4.7.4/../../../../arm-none-eabi/lib/armv7e-m\libg.a(lib_a-findfp.o)
                0x080114e8                __sfp
 .text.__sfp_lock_acquire
                0x0801158c        0x4 c:/program files (x86)/eclipse-arm-eseo/gcc-arm-none-eabi-4_7-2013q2-20130614-win32/gnu tools arm embedded/4.7 2013q2/bin/../lib/gcc/arm-none-eabi/4.7.4/../../../../arm-none-eabi/lib/armv7e-m\libg.a(lib_a-findfp.o)
                0x0801158c                __sfp_lock_acquire
 .text.__sfp_lock_release
                0x08011590        0x4 c:/program files (x86)/eclipse-arm-eseo/gcc-arm-none-eabi-4_7-2013q2-20130614-win32/gnu tools arm embedded/4.7 2013q2/bin/../lib/gcc/arm-none-eabi/4.7.4/../../../../arm-none-eabi/lib/armv7e-m\libg.a(lib_a-findfp.o)
                0x08011590                __sfp_lock_release
 .text.__sinit_lock_acquire
                0x08011594        0x4 c:/program files (x86)/eclipse-arm-eseo/gcc-arm-none-eabi-4_7-2013q2-20130614-win32/gnu tools arm embedded/4.7 2013q2/bin/../lib/gcc/arm-none-eabi/4.7.4/../../../../arm-none-eabi/lib/armv7e-m\libg.a(lib_a-findfp.o)
                0x08011594                __sinit_lock_acquire
 .text.__sinit_lock_release
                0x08011598        0x4 c:/program files (x86)/eclipse-arm-eseo/gcc-arm-none-eabi-4_7-2013q2-20130614-win32/gnu tools arm embedded/4.7 2013q2/bin/../lib/gcc/arm-none-eabi/4.7.4/../../../../arm-none-eabi/lib/armv7e-m\libg.a(lib_a-findfp.o)
                0x08011598                __sinit_lock_release
 .text.__fp_lock_all
                0x0801159c       0x18 c:/program files (x86)/eclipse-arm-eseo/gcc-arm-none-eabi-4_7-2013q2-20130614-win32/gnu tools arm embedded/4.7 2013q2/bin/../lib/gcc/arm-none-eabi/4.7.4/../../../../arm-none-eabi/lib/armv7e-m\libg.a(lib_a-findfp.o)
                0x0801159c                __fp_lock_all
 .text.__fp_unlock_all
                0x080115b4       0x18 c:/program files (x86)/eclipse-arm-eseo/gcc-arm-none-eabi-4_7-2013q2-20130614-win32/gnu tools arm embedded/4.7 2013q2/bin/../lib/gcc/arm-none-eabi/4.7.4/../../../../arm-none-eabi/lib/armv7e-m\libg.a(lib_a-findfp.o)
                0x080115b4                __fp_unlock_all
 .text._malloc_trim_r
                0x080115cc       0x98 c:/program files (x86)/eclipse-arm-eseo/gcc-arm-none-eabi-4_7-2013q2-20130614-win32/gnu tools arm embedded/4.7 2013q2/bin/../lib/gcc/arm-none-eabi/4.7.4/../../../../arm-none-eabi/lib/armv7e-m\libg.a(lib_a-freer.o)
                0x080115cc                _malloc_trim_r
 .text._free_r  0x08011664      0x194 c:/program files (x86)/eclipse-arm-eseo/gcc-arm-none-eabi-4_7-2013q2-20130614-win32/gnu tools arm embedded/4.7 2013q2/bin/../lib/gcc/arm-none-eabi/4.7.4/../../../../arm-none-eabi/lib/armv7e-m\libg.a(lib_a-freer.o)
                0x08011664                _free_r
 .text._fwalk   0x080117f8       0xb8 c:/program files (x86)/eclipse-arm-eseo/gcc-arm-none-eabi-4_7-2013q2-20130614-win32/gnu tools arm embedded/4.7 2013q2/bin/../lib/gcc/arm-none-eabi/4.7.4/../../../../arm-none-eabi/lib/armv7e-m\libg.a(lib_a-fwalk.o)
                0x080117f8                _fwalk
 .text._fwalk_reent
                0x080118b0       0xc0 c:/program files (x86)/eclipse-arm-eseo/gcc-arm-none-eabi-4_7-2013q2-20130614-win32/gnu tools arm embedded/4.7 2013q2/bin/../lib/gcc/arm-none-eabi/4.7.4/../../../../arm-none-eabi/lib/armv7e-m\libg.a(lib_a-fwalk.o)
                0x080118b0                _fwalk_reent
 .text._setlocale_r
                0x08011970       0x40 c:/program files (x86)/eclipse-arm-eseo/gcc-arm-none-eabi-4_7-2013q2-20130614-win32/gnu tools arm embedded/4.7 2013q2/bin/../lib/gcc/arm-none-eabi/4.7.4/../../../../arm-none-eabi/lib/armv7e-m\libg.a(lib_a-locale.o)
                0x08011970                _setlocale_r
 .text.__locale_charset
                0x080119b0        0xc c:/program files (x86)/eclipse-arm-eseo/gcc-arm-none-eabi-4_7-2013q2-20130614-win32/gnu tools arm embedded/4.7 2013q2/bin/../lib/gcc/arm-none-eabi/4.7.4/../../../../arm-none-eabi/lib/armv7e-m\libg.a(lib_a-locale.o)
                0x080119b0                __locale_charset
 .text.__locale_mb_cur_max
                0x080119bc        0xc c:/program files (x86)/eclipse-arm-eseo/gcc-arm-none-eabi-4_7-2013q2-20130614-win32/gnu tools arm embedded/4.7 2013q2/bin/../lib/gcc/arm-none-eabi/4.7.4/../../../../arm-none-eabi/lib/armv7e-m\libg.a(lib_a-locale.o)
                0x080119bc                __locale_mb_cur_max
 .text.__locale_msgcharset
                0x080119c8        0xc c:/program files (x86)/eclipse-arm-eseo/gcc-arm-none-eabi-4_7-2013q2-20130614-win32/gnu tools arm embedded/4.7 2013q2/bin/../lib/gcc/arm-none-eabi/4.7.4/../../../../arm-none-eabi/lib/armv7e-m\libg.a(lib_a-locale.o)
                0x080119c8                __locale_msgcharset
 .text.__locale_cjk_lang
                0x080119d4        0x4 c:/program files (x86)/eclipse-arm-eseo/gcc-arm-none-eabi-4_7-2013q2-20130614-win32/gnu tools arm embedded/4.7 2013q2/bin/../lib/gcc/arm-none-eabi/4.7.4/../../../../arm-none-eabi/lib/armv7e-m\libg.a(lib_a-locale.o)
                0x080119d4                __locale_cjk_lang
 .text._localeconv_r
                0x080119d8        0xc c:/program files (x86)/eclipse-arm-eseo/gcc-arm-none-eabi-4_7-2013q2-20130614-win32/gnu tools arm embedded/4.7 2013q2/bin/../lib/gcc/arm-none-eabi/4.7.4/../../../../arm-none-eabi/lib/armv7e-m\libg.a(lib_a-locale.o)
                0x080119d8                _localeconv_r
 .text.setlocale
                0x080119e4       0x18 c:/program files (x86)/eclipse-arm-eseo/gcc-arm-none-eabi-4_7-2013q2-20130614-win32/gnu tools arm embedded/4.7 2013q2/bin/../lib/gcc/arm-none-eabi/4.7.4/../../../../arm-none-eabi/lib/armv7e-m\libg.a(lib_a-locale.o)
                0x080119e4                setlocale
 .text.localeconv
                0x080119fc        0xc c:/program files (x86)/eclipse-arm-eseo/gcc-arm-none-eabi-4_7-2013q2-20130614-win32/gnu tools arm embedded/4.7 2013q2/bin/../lib/gcc/arm-none-eabi/4.7.4/../../../../arm-none-eabi/lib/armv7e-m\libg.a(lib_a-locale.o)
                0x080119fc                localeconv
 .text.__smakebuf_r
                0x08011a08       0xe8 c:/program files (x86)/eclipse-arm-eseo/gcc-arm-none-eabi-4_7-2013q2-20130614-win32/gnu tools arm embedded/4.7 2013q2/bin/../lib/gcc/arm-none-eabi/4.7.4/../../../../arm-none-eabi/lib/armv7e-m\libg.a(lib_a-makebuf.o)
                0x08011a08                __smakebuf_r
 .text.malloc   0x08011af0       0x10 c:/program files (x86)/eclipse-arm-eseo/gcc-arm-none-eabi-4_7-2013q2-20130614-win32/gnu tools arm embedded/4.7 2013q2/bin/../lib/gcc/arm-none-eabi/4.7.4/../../../../arm-none-eabi/lib/armv7e-m\libg.a(lib_a-malloc.o)
                0x08011af0                malloc
 .text.free     0x08011b00       0x10 c:/program files (x86)/eclipse-arm-eseo/gcc-arm-none-eabi-4_7-2013q2-20130614-win32/gnu tools arm embedded/4.7 2013q2/bin/../lib/gcc/arm-none-eabi/4.7.4/../../../../arm-none-eabi/lib/armv7e-m\libg.a(lib_a-malloc.o)
                0x08011b00                free
 .text._malloc_r
                0x08011b10      0x55c c:/program files (x86)/eclipse-arm-eseo/gcc-arm-none-eabi-4_7-2013q2-20130614-win32/gnu tools arm embedded/4.7 2013q2/bin/../lib/gcc/arm-none-eabi/4.7.4/../../../../arm-none-eabi/lib/armv7e-m\libg.a(lib_a-mallocr.o)
                0x08011b10                _malloc_r
 .text.memchr   0x0801206c      0x140 c:/program files (x86)/eclipse-arm-eseo/gcc-arm-none-eabi-4_7-2013q2-20130614-win32/gnu tools arm embedded/4.7 2013q2/bin/../lib/gcc/arm-none-eabi/4.7.4/../../../../arm-none-eabi/lib/armv7e-m\libg.a(lib_a-memchr.o)
                0x0801206c                memchr
 .text.memcpy   0x080121ac      0x144 c:/program files (x86)/eclipse-arm-eseo/gcc-arm-none-eabi-4_7-2013q2-20130614-win32/gnu tools arm embedded/4.7 2013q2/bin/../lib/gcc/arm-none-eabi/4.7.4/../../../../arm-none-eabi/lib/armv7e-m\libg.a(lib_a-memcpy.o)
                0x080121ac                memcpy
 .text.memset   0x080122f0      0x12c c:/program files (x86)/eclipse-arm-eseo/gcc-arm-none-eabi-4_7-2013q2-20130614-win32/gnu tools arm embedded/4.7 2013q2/bin/../lib/gcc/arm-none-eabi/4.7.4/../../../../arm-none-eabi/lib/armv7e-m\libg.a(lib_a-memset.o)
                0x080122f0                memset
 .text.__malloc_lock
                0x0801241c        0x4 c:/program files (x86)/eclipse-arm-eseo/gcc-arm-none-eabi-4_7-2013q2-20130614-win32/gnu tools arm embedded/4.7 2013q2/bin/../lib/gcc/arm-none-eabi/4.7.4/../../../../arm-none-eabi/lib/armv7e-m\libg.a(lib_a-mlock.o)
                0x0801241c                __malloc_lock
 .text.__malloc_unlock
                0x08012420        0x4 c:/program files (x86)/eclipse-arm-eseo/gcc-arm-none-eabi-4_7-2013q2-20130614-win32/gnu tools arm embedded/4.7 2013q2/bin/../lib/gcc/arm-none-eabi/4.7.4/../../../../arm-none-eabi/lib/armv7e-m\libg.a(lib_a-mlock.o)
                0x08012420                __malloc_unlock
 .text._Balloc  0x08012424       0x4c c:/program files (x86)/eclipse-arm-eseo/gcc-arm-none-eabi-4_7-2013q2-20130614-win32/gnu tools arm embedded/4.7 2013q2/bin/../lib/gcc/arm-none-eabi/4.7.4/../../../../arm-none-eabi/lib/armv7e-m\libg.a(lib_a-mprec.o)
                0x08012424                _Balloc
 .text._Bfree   0x08012470       0x14 c:/program files (x86)/eclipse-arm-eseo/gcc-arm-none-eabi-4_7-2013q2-20130614-win32/gnu tools arm embedded/4.7 2013q2/bin/../lib/gcc/arm-none-eabi/4.7.4/../../../../arm-none-eabi/lib/armv7e-m\libg.a(lib_a-mprec.o)
                0x08012470                _Bfree
 .text.__multadd
                0x08012484       0xf8 c:/program files (x86)/eclipse-arm-eseo/gcc-arm-none-eabi-4_7-2013q2-20130614-win32/gnu tools arm embedded/4.7 2013q2/bin/../lib/gcc/arm-none-eabi/4.7.4/../../../../arm-none-eabi/lib/armv7e-m\libg.a(lib_a-mprec.o)
                0x08012484                __multadd
 .text.__s2b    0x0801257c      0x140 c:/program files (x86)/eclipse-arm-eseo/gcc-arm-none-eabi-4_7-2013q2-20130614-win32/gnu tools arm embedded/4.7 2013q2/bin/../lib/gcc/arm-none-eabi/4.7.4/../../../../arm-none-eabi/lib/armv7e-m\libg.a(lib_a-mprec.o)
                0x0801257c                __s2b
 .text.__hi0bits
                0x080126bc       0x3c c:/program files (x86)/eclipse-arm-eseo/gcc-arm-none-eabi-4_7-2013q2-20130614-win32/gnu tools arm embedded/4.7 2013q2/bin/../lib/gcc/arm-none-eabi/4.7.4/../../../../arm-none-eabi/lib/armv7e-m\libg.a(lib_a-mprec.o)
                0x080126bc                __hi0bits
 .text.__lo0bits
                0x080126f8       0x5c c:/program files (x86)/eclipse-arm-eseo/gcc-arm-none-eabi-4_7-2013q2-20130614-win32/gnu tools arm embedded/4.7 2013q2/bin/../lib/gcc/arm-none-eabi/4.7.4/../../../../arm-none-eabi/lib/armv7e-m\libg.a(lib_a-mprec.o)
                0x080126f8                __lo0bits
 .text.__i2b    0x08012754       0x14 c:/program files (x86)/eclipse-arm-eseo/gcc-arm-none-eabi-4_7-2013q2-20130614-win32/gnu tools arm embedded/4.7 2013q2/bin/../lib/gcc/arm-none-eabi/4.7.4/../../../../arm-none-eabi/lib/armv7e-m\libg.a(lib_a-mprec.o)
                0x08012754                __i2b
 .text.__multiply
                0x08012768      0x2d0 c:/program files (x86)/eclipse-arm-eseo/gcc-arm-none-eabi-4_7-2013q2-20130614-win32/gnu tools arm embedded/4.7 2013q2/bin/../lib/gcc/arm-none-eabi/4.7.4/../../../../arm-none-eabi/lib/armv7e-m\libg.a(lib_a-mprec.o)
                0x08012768                __multiply
 .text.__pow5mult
                0x08012a38       0x94 c:/program files (x86)/eclipse-arm-eseo/gcc-arm-none-eabi-4_7-2013q2-20130614-win32/gnu tools arm embedded/4.7 2013q2/bin/../lib/gcc/arm-none-eabi/4.7.4/../../../../arm-none-eabi/lib/armv7e-m\libg.a(lib_a-mprec.o)
                0x08012a38                __pow5mult
 .text.__lshift
                0x08012acc      0x188 c:/program files (x86)/eclipse-arm-eseo/gcc-arm-none-eabi-4_7-2013q2-20130614-win32/gnu tools arm embedded/4.7 2013q2/bin/../lib/gcc/arm-none-eabi/4.7.4/../../../../arm-none-eabi/lib/armv7e-m\libg.a(lib_a-mprec.o)
                0x08012acc                __lshift
 .text.__mcmp   0x08012c54       0x5c c:/program files (x86)/eclipse-arm-eseo/gcc-arm-none-eabi-4_7-2013q2-20130614-win32/gnu tools arm embedded/4.7 2013q2/bin/../lib/gcc/arm-none-eabi/4.7.4/../../../../arm-none-eabi/lib/armv7e-m\libg.a(lib_a-mprec.o)
                0x08012c54                __mcmp
 .text.__mdiff  0x08012cb0      0x20c c:/program files (x86)/eclipse-arm-eseo/gcc-arm-none-eabi-4_7-2013q2-20130614-win32/gnu tools arm embedded/4.7 2013q2/bin/../lib/gcc/arm-none-eabi/4.7.4/../../../../arm-none-eabi/lib/armv7e-m\libg.a(lib_a-mprec.o)
                0x08012cb0                __mdiff
 .text.__ulp    0x08012ebc       0x44 c:/program files (x86)/eclipse-arm-eseo/gcc-arm-none-eabi-4_7-2013q2-20130614-win32/gnu tools arm embedded/4.7 2013q2/bin/../lib/gcc/arm-none-eabi/4.7.4/../../../../arm-none-eabi/lib/armv7e-m\libg.a(lib_a-mprec.o)
                0x08012ebc                __ulp
 .text.__b2d    0x08012f00       0xbc c:/program files (x86)/eclipse-arm-eseo/gcc-arm-none-eabi-4_7-2013q2-20130614-win32/gnu tools arm embedded/4.7 2013q2/bin/../lib/gcc/arm-none-eabi/4.7.4/../../../../arm-none-eabi/lib/armv7e-m\libg.a(lib_a-mprec.o)
                0x08012f00                __b2d
 .text.__d2b    0x08012fbc       0xc0 c:/program files (x86)/eclipse-arm-eseo/gcc-arm-none-eabi-4_7-2013q2-20130614-win32/gnu tools arm embedded/4.7 2013q2/bin/../lib/gcc/arm-none-eabi/4.7.4/../../../../arm-none-eabi/lib/armv7e-m\libg.a(lib_a-mprec.o)
                0x08012fbc                __d2b
 .text.__ratio  0x0801307c       0x54 c:/program files (x86)/eclipse-arm-eseo/gcc-arm-none-eabi-4_7-2013q2-20130614-win32/gnu tools arm embedded/4.7 2013q2/bin/../lib/gcc/arm-none-eabi/4.7.4/../../../../arm-none-eabi/lib/armv7e-m\libg.a(lib_a-mprec.o)
                0x0801307c                __ratio
 .text._mprec_log10
                0x080130d0       0x68 c:/program files (x86)/eclipse-arm-eseo/gcc-arm-none-eabi-4_7-2013q2-20130614-win32/gnu tools arm embedded/4.7 2013q2/bin/../lib/gcc/arm-none-eabi/4.7.4/../../../../arm-none-eabi/lib/armv7e-m\libg.a(lib_a-mprec.o)
                0x080130d0                _mprec_log10
 .text.__copybits
                0x08013138       0xa4 c:/program files (x86)/eclipse-arm-eseo/gcc-arm-none-eabi-4_7-2013q2-20130614-win32/gnu tools arm embedded/4.7 2013q2/bin/../lib/gcc/arm-none-eabi/4.7.4/../../../../arm-none-eabi/lib/armv7e-m\libg.a(lib_a-mprec.o)
                0x08013138                __copybits
 .text.__any_on
                0x080131dc       0x74 c:/program files (x86)/eclipse-arm-eseo/gcc-arm-none-eabi-4_7-2013q2-20130614-win32/gnu tools arm embedded/4.7 2013q2/bin/../lib/gcc/arm-none-eabi/4.7.4/../../../../arm-none-eabi/lib/armv7e-m\libg.a(lib_a-mprec.o)
                0x080131dc                __any_on
 .text.__fpclassifyd
                0x08013250       0x68 c:/program files (x86)/eclipse-arm-eseo/gcc-arm-none-eabi-4_7-2013q2-20130614-win32/gnu tools arm embedded/4.7 2013q2/bin/../lib/gcc/arm-none-eabi/4.7.4/../../../../arm-none-eabi/lib/armv7e-m\libg.a(lib_a-s_fpclassify.o)
                0x08013250                __fpclassifyd
 .text._sbrk_r  0x080132b8       0x24 c:/program files (x86)/eclipse-arm-eseo/gcc-arm-none-eabi-4_7-2013q2-20130614-win32/gnu tools arm embedded/4.7 2013q2/bin/../lib/gcc/arm-none-eabi/4.7.4/../../../../arm-none-eabi/lib/armv7e-m\libg.a(lib_a-sbrkr.o)
                0x080132b8                _sbrk_r
 .text.__sread  0x080132dc       0x24 c:/program files (x86)/eclipse-arm-eseo/gcc-arm-none-eabi-4_7-2013q2-20130614-win32/gnu tools arm embedded/4.7 2013q2/bin/../lib/gcc/arm-none-eabi/4.7.4/../../../../arm-none-eabi/lib/armv7e-m\libg.a(lib_a-stdio.o)
                0x080132dc                __sread
 .text.__seofread
                0x08013300        0x4 c:/program files (x86)/eclipse-arm-eseo/gcc-arm-none-eabi-4_7-2013q2-20130614-win32/gnu tools arm embedded/4.7 2013q2/bin/../lib/gcc/arm-none-eabi/4.7.4/../../../../arm-none-eabi/lib/armv7e-m\libg.a(lib_a-stdio.o)
                0x08013300                __seofread
 .text.__swrite
                0x08013304       0x44 c:/program files (x86)/eclipse-arm-eseo/gcc-arm-none-eabi-4_7-2013q2-20130614-win32/gnu tools arm embedded/4.7 2013q2/bin/../lib/gcc/arm-none-eabi/4.7.4/../../../../arm-none-eabi/lib/armv7e-m\libg.a(lib_a-stdio.o)
                0x08013304                __swrite
 .text.__sseek  0x08013348       0x24 c:/program files (x86)/eclipse-arm-eseo/gcc-arm-none-eabi-4_7-2013q2-20130614-win32/gnu tools arm embedded/4.7 2013q2/bin/../lib/gcc/arm-none-eabi/4.7.4/../../../../arm-none-eabi/lib/armv7e-m\libg.a(lib_a-stdio.o)
                0x08013348                __sseek
 .text.__sclose
                0x0801336c        0x8 c:/program files (x86)/eclipse-arm-eseo/gcc-arm-none-eabi-4_7-2013q2-20130614-win32/gnu tools arm embedded/4.7 2013q2/bin/../lib/gcc/arm-none-eabi/4.7.4/../../../../arm-none-eabi/lib/armv7e-m\libg.a(lib_a-stdio.o)
                0x0801336c                __sclose
 .text.strcmp   0x08013374       0x80 c:/program files (x86)/eclipse-arm-eseo/gcc-arm-none-eabi-4_7-2013q2-20130614-win32/gnu tools arm embedded/4.7 2013q2/bin/../lib/gcc/arm-none-eabi/4.7.4/../../../../arm-none-eabi/lib/armv7e-m\libg.a(lib_a-strcmp.o)
                0x08013374                strcmp
 .text.strcmp_unaligned
                0x080133f4      0x15c c:/program files (x86)/eclipse-arm-eseo/gcc-arm-none-eabi-4_7-2013q2-20130614-win32/gnu tools arm embedded/4.7 2013q2/bin/../lib/gcc/arm-none-eabi/4.7.4/../../../../arm-none-eabi/lib/armv7e-m\libg.a(lib_a-strcmp.o)
 .text.strlen   0x08013550       0x60 c:/program files (x86)/eclipse-arm-eseo/gcc-arm-none-eabi-4_7-2013q2-20130614-win32/gnu tools arm embedded/4.7 2013q2/bin/../lib/gcc/arm-none-eabi/4.7.4/../../../../arm-none-eabi/lib/armv7e-m\libg.a(lib_a-strlen.o)
                0x08013550                strlen
 .text.__sprint_r
                0x080135b0       0xc0 c:/program files (x86)/eclipse-arm-eseo/gcc-arm-none-eabi-4_7-2013q2-20130614-win32/gnu tools arm embedded/4.7 2013q2/bin/../lib/gcc/arm-none-eabi/4.7.4/../../../../arm-none-eabi/lib/armv7e-m\libg.a(lib_a-vfiprintf.o)
                0x080135b0                __sprint_r
 .text._vfiprintf_r
                0x08013670      0xf20 c:/program files (x86)/eclipse-arm-eseo/gcc-arm-none-eabi-4_7-2013q2-20130614-win32/gnu tools arm embedded/4.7 2013q2/bin/../lib/gcc/arm-none-eabi/4.7.4/../../../../arm-none-eabi/lib/armv7e-m\libg.a(lib_a-vfiprintf.o)
                0x08013670                _vfiprintf_r
 .text.__sbprintf
                0x08014590       0x78 c:/program files (x86)/eclipse-arm-eseo/gcc-arm-none-eabi-4_7-2013q2-20130614-win32/gnu tools arm embedded/4.7 2013q2/bin/../lib/gcc/arm-none-eabi/4.7.4/../../../../arm-none-eabi/lib/armv7e-m\libg.a(lib_a-vfiprintf.o)
 .text.vfiprintf
                0x08014608       0x1c c:/program files (x86)/eclipse-arm-eseo/gcc-arm-none-eabi-4_7-2013q2-20130614-win32/gnu tools arm embedded/4.7 2013q2/bin/../lib/gcc/arm-none-eabi/4.7.4/../../../../arm-none-eabi/lib/armv7e-m\libg.a(lib_a-vfiprintf.o)
                0x08014608                vfiprintf
 .text._write_r
                0x08014624       0x28 c:/program files (x86)/eclipse-arm-eseo/gcc-arm-none-eabi-4_7-2013q2-20130614-win32/gnu tools arm embedded/4.7 2013q2/bin/../lib/gcc/arm-none-eabi/4.7.4/../../../../arm-none-eabi/lib/armv7e-m\libg.a(lib_a-writer.o)
                0x08014624                _write_r
 .text._calloc_r
                0x0801464c       0x60 c:/program files (x86)/eclipse-arm-eseo/gcc-arm-none-eabi-4_7-2013q2-20130614-win32/gnu tools arm embedded/4.7 2013q2/bin/../lib/gcc/arm-none-eabi/4.7.4/../../../../arm-none-eabi/lib/armv7e-m\libg.a(lib_a-callocr.o)
                0x0801464c                _calloc_r
 .text._close_r
                0x080146ac       0x24 c:/program files (x86)/eclipse-arm-eseo/gcc-arm-none-eabi-4_7-2013q2-20130614-win32/gnu tools arm embedded/4.7 2013q2/bin/../lib/gcc/arm-none-eabi/4.7.4/../../../../arm-none-eabi/lib/armv7e-m\libg.a(lib_a-closer.o)
                0x080146ac                _close_r
 .text._fclose_r
                0x080146d0       0x94 c:/program files (x86)/eclipse-arm-eseo/gcc-arm-none-eabi-4_7-2013q2-20130614-win32/gnu tools arm embedded/4.7 2013q2/bin/../lib/gcc/arm-none-eabi/4.7.4/../../../../arm-none-eabi/lib/armv7e-m\libg.a(lib_a-fclose.o)
                0x080146d0                _fclose_r
 .text.fclose   0x08014764       0x10 c:/program files (x86)/eclipse-arm-eseo/gcc-arm-none-eabi-4_7-2013q2-20130614-win32/gnu tools arm embedded/4.7 2013q2/bin/../lib/gcc/arm-none-eabi/4.7.4/../../../../arm-none-eabi/lib/armv7e-m\libg.a(lib_a-fclose.o)
                0x08014764                fclose
 .text._fputwc_r
                0x08014774      0x1b0 c:/program files (x86)/eclipse-arm-eseo/gcc-arm-none-eabi-4_7-2013q2-20130614-win32/gnu tools arm embedded/4.7 2013q2/bin/../lib/gcc/arm-none-eabi/4.7.4/../../../../arm-none-eabi/lib/armv7e-m\libg.a(lib_a-fputwc.o)
                0x08014774                _fputwc_r
 .text.fputwc   0x08014924       0x2c c:/program files (x86)/eclipse-arm-eseo/gcc-arm-none-eabi-4_7-2013q2-20130614-win32/gnu tools arm embedded/4.7 2013q2/bin/../lib/gcc/arm-none-eabi/4.7.4/../../../../arm-none-eabi/lib/armv7e-m\libg.a(lib_a-fputwc.o)
                0x08014924                fputwc
 .text._fstat_r
                0x08014950       0x28 c:/program files (x86)/eclipse-arm-eseo/gcc-arm-none-eabi-4_7-2013q2-20130614-win32/gnu tools arm embedded/4.7 2013q2/bin/../lib/gcc/arm-none-eabi/4.7.4/../../../../arm-none-eabi/lib/armv7e-m\libg.a(lib_a-fstatr.o)
                0x08014950                _fstat_r
 .text.__sfvwrite_r
                0x08014978      0x314 c:/program files (x86)/eclipse-arm-eseo/gcc-arm-none-eabi-4_7-2013q2-20130614-win32/gnu tools arm embedded/4.7 2013q2/bin/../lib/gcc/arm-none-eabi/4.7.4/../../../../arm-none-eabi/lib/armv7e-m\libg.a(lib_a-fvwrite.o)
                0x08014978                __sfvwrite_r
 .text._isatty_r
                0x08014c8c       0x24 c:/program files (x86)/eclipse-arm-eseo/gcc-arm-none-eabi-4_7-2013q2-20130614-win32/gnu tools arm embedded/4.7 2013q2/bin/../lib/gcc/arm-none-eabi/4.7.4/../../../../arm-none-eabi/lib/armv7e-m\libg.a(lib_a-isattyr.o)
                0x08014c8c                _isatty_r
 .text._lseek_r
                0x08014cb0       0x28 c:/program files (x86)/eclipse-arm-eseo/gcc-arm-none-eabi-4_7-2013q2-20130614-win32/gnu tools arm embedded/4.7 2013q2/bin/../lib/gcc/arm-none-eabi/4.7.4/../../../../arm-none-eabi/lib/armv7e-m\libg.a(lib_a-lseekr.o)
                0x08014cb0                _lseek_r
 .text.memmove  0x08014cd8      0x198 c:/program files (x86)/eclipse-arm-eseo/gcc-arm-none-eabi-4_7-2013q2-20130614-win32/gnu tools arm embedded/4.7 2013q2/bin/../lib/gcc/arm-none-eabi/4.7.4/../../../../arm-none-eabi/lib/armv7e-m\libg.a(lib_a-memmove.o)
                0x08014cd8                memmove
 .text._read_r  0x08014e70       0x28 c:/program files (x86)/eclipse-arm-eseo/gcc-arm-none-eabi-4_7-2013q2-20130614-win32/gnu tools arm embedded/4.7 2013q2/bin/../lib/gcc/arm-none-eabi/4.7.4/../../../../arm-none-eabi/lib/armv7e-m\libg.a(lib_a-readr.o)
                0x08014e70                _read_r
 .text._realloc_r
                0x08014e98      0x3dc c:/program files (x86)/eclipse-arm-eseo/gcc-arm-none-eabi-4_7-2013q2-20130614-win32/gnu tools arm embedded/4.7 2013q2/bin/../lib/gcc/arm-none-eabi/4.7.4/../../../../arm-none-eabi/lib/armv7e-m\libg.a(lib_a-reallocr.o)
                0x08014e98                _realloc_r
 .text.cleanup_glue
                0x08015274       0x1c c:/program files (x86)/eclipse-arm-eseo/gcc-arm-none-eabi-4_7-2013q2-20130614-win32/gnu tools arm embedded/4.7 2013q2/bin/../lib/gcc/arm-none-eabi/4.7.4/../../../../arm-none-eabi/lib/armv7e-m\libg.a(lib_a-reent.o)
                0x08015274                cleanup_glue
 .text._reclaim_reent
                0x08015290       0x8c c:/program files (x86)/eclipse-arm-eseo/gcc-arm-none-eabi-4_7-2013q2-20130614-win32/gnu tools arm embedded/4.7 2013q2/bin/../lib/gcc/arm-none-eabi/4.7.4/../../../../arm-none-eabi/lib/armv7e-m\libg.a(lib_a-reent.o)
                0x08015290                _reclaim_reent
 .text._wrapup_reent
                0x0801531c       0x74 c:/program files (x86)/eclipse-arm-eseo/gcc-arm-none-eabi-4_7-2013q2-20130614-win32/gnu tools arm embedded/4.7 2013q2/bin/../lib/gcc/arm-none-eabi/4.7.4/../../../../arm-none-eabi/lib/armv7e-m\libg.a(lib_a-reent.o)
                0x0801531c                _wrapup_reent
 .text.__swbuf_r
                0x08015390       0xbc c:/program files (x86)/eclipse-arm-eseo/gcc-arm-none-eabi-4_7-2013q2-20130614-win32/gnu tools arm embedded/4.7 2013q2/bin/../lib/gcc/arm-none-eabi/4.7.4/../../../../arm-none-eabi/lib/armv7e-m\libg.a(lib_a-wbuf.o)
                0x08015390                __swbuf_r
 .text.__swbuf  0x0801544c       0x18 c:/program files (x86)/eclipse-arm-eseo/gcc-arm-none-eabi-4_7-2013q2-20130614-win32/gnu tools arm embedded/4.7 2013q2/bin/../lib/gcc/arm-none-eabi/4.7.4/../../../../arm-none-eabi/lib/armv7e-m\libg.a(lib_a-wbuf.o)
                0x0801544c                __swbuf
 .text._wcrtomb_r
                0x08015464       0x50 c:/program files (x86)/eclipse-arm-eseo/gcc-arm-none-eabi-4_7-2013q2-20130614-win32/gnu tools arm embedded/4.7 2013q2/bin/../lib/gcc/arm-none-eabi/4.7.4/../../../../arm-none-eabi/lib/armv7e-m\libg.a(lib_a-wcrtomb.o)
                0x08015464                _wcrtomb_r
 .text.wcrtomb  0x080154b4       0x60 c:/program files (x86)/eclipse-arm-eseo/gcc-arm-none-eabi-4_7-2013q2-20130614-win32/gnu tools arm embedded/4.7 2013q2/bin/../lib/gcc/arm-none-eabi/4.7.4/../../../../arm-none-eabi/lib/armv7e-m\libg.a(lib_a-wcrtomb.o)
                0x080154b4                wcrtomb
 .text.__ascii_wctomb
                0x08015514       0x1c c:/program files (x86)/eclipse-arm-eseo/gcc-arm-none-eabi-4_7-2013q2-20130614-win32/gnu tools arm embedded/4.7 2013q2/bin/../lib/gcc/arm-none-eabi/4.7.4/../../../../arm-none-eabi/lib/armv7e-m\libg.a(lib_a-wctomb_r.o)
                0x08015514                __ascii_wctomb
 .text._wctomb_r
                0x08015530       0x30 c:/program files (x86)/eclipse-arm-eseo/gcc-arm-none-eabi-4_7-2013q2-20130614-win32/gnu tools arm embedded/4.7 2013q2/bin/../lib/gcc/arm-none-eabi/4.7.4/../../../../arm-none-eabi/lib/armv7e-m\libg.a(lib_a-wctomb_r.o)
                0x08015530                _wctomb_r
 .text.atan     0x08015560      0x368 c:/program files (x86)/eclipse-arm-eseo/gcc-arm-none-eabi-4_7-2013q2-20130614-win32/gnu tools arm embedded/4.7 2013q2/bin/../lib/gcc/arm-none-eabi/4.7.4/../../../../arm-none-eabi/lib/armv7e-m\libm.a(lib_a-s_atan.o)
                0x08015560                atan
 .text.cos      0x080158c8       0x90 c:/program files (x86)/eclipse-arm-eseo/gcc-arm-none-eabi-4_7-2013q2-20130614-win32/gnu tools arm embedded/4.7 2013q2/bin/../lib/gcc/arm-none-eabi/4.7.4/../../../../arm-none-eabi/lib/armv7e-m\libm.a(lib_a-s_cos.o)
                0x080158c8                cos
 .text.fabs     0x08015958        0x8 c:/program files (x86)/eclipse-arm-eseo/gcc-arm-none-eabi-4_7-2013q2-20130614-win32/gnu tools arm embedded/4.7 2013q2/bin/../lib/gcc/arm-none-eabi/4.7.4/../../../../arm-none-eabi/lib/armv7e-m\libm.a(lib_a-s_fabs.o)
                0x08015958                fabs
 .text.sin      0x08015960       0x98 c:/program files (x86)/eclipse-arm-eseo/gcc-arm-none-eabi-4_7-2013q2-20130614-win32/gnu tools arm embedded/4.7 2013q2/bin/../lib/gcc/arm-none-eabi/4.7.4/../../../../arm-none-eabi/lib/armv7e-m\libm.a(lib_a-s_sin.o)
                0x08015960                sin
 .text.__ieee754_rem_pio2
                0x080159f8      0x468 c:/program files (x86)/eclipse-arm-eseo/gcc-arm-none-eabi-4_7-2013q2-20130614-win32/gnu tools arm embedded/4.7 2013q2/bin/../lib/gcc/arm-none-eabi/4.7.4/../../../../arm-none-eabi/lib/armv7e-m\libm.a(lib_a-e_rem_pio2.o)
                0x080159f8                __ieee754_rem_pio2
 .text.__kernel_cos
                0x08015e60      0x258 c:/program files (x86)/eclipse-arm-eseo/gcc-arm-none-eabi-4_7-2013q2-20130614-win32/gnu tools arm embedded/4.7 2013q2/bin/../lib/gcc/arm-none-eabi/4.7.4/../../../../arm-none-eabi/lib/armv7e-m\libm.a(lib_a-k_cos.o)
                0x08015e60                __kernel_cos
 .text.__kernel_rem_pio2
                0x080160b8      0xdec c:/program files (x86)/eclipse-arm-eseo/gcc-arm-none-eabi-4_7-2013q2-20130614-win32/gnu tools arm embedded/4.7 2013q2/bin/../lib/gcc/arm-none-eabi/4.7.4/../../../../arm-none-eabi/lib/armv7e-m\libm.a(lib_a-k_rem_pio2.o)
                0x080160b8                __kernel_rem_pio2
 *fill*         0x08016ea4        0x4 00
 .text.__kernel_sin
                0x08016ea8      0x170 c:/program files (x86)/eclipse-arm-eseo/gcc-arm-none-eabi-4_7-2013q2-20130614-win32/gnu tools arm embedded/4.7 2013q2/bin/../lib/gcc/arm-none-eabi/4.7.4/../../../../arm-none-eabi/lib/armv7e-m\libm.a(lib_a-k_sin.o)
                0x08016ea8                __kernel_sin
 .text.floor    0x08017018      0x110 c:/program files (x86)/eclipse-arm-eseo/gcc-arm-none-eabi-4_7-2013q2-20130614-win32/gnu tools arm embedded/4.7 2013q2/bin/../lib/gcc/arm-none-eabi/4.7.4/../../../../arm-none-eabi/lib/armv7e-m\libm.a(lib_a-s_floor.o)
                0x08017018                floor
 .text.scalbn   0x08017128      0x108 c:/program files (x86)/eclipse-arm-eseo/gcc-arm-none-eabi-4_7-2013q2-20130614-win32/gnu tools arm embedded/4.7 2013q2/bin/../lib/gcc/arm-none-eabi/4.7.4/../../../../arm-none-eabi/lib/armv7e-m\libm.a(lib_a-s_scalbn.o)
                0x08017128                scalbn
 .text.copysign
                0x08017230       0x18 c:/program files (x86)/eclipse-arm-eseo/gcc-arm-none-eabi-4_7-2013q2-20130614-win32/gnu tools arm embedded/4.7 2013q2/bin/../lib/gcc/arm-none-eabi/4.7.4/../../../../arm-none-eabi/lib/armv7e-m\libm.a(lib_a-s_copysign.o)
                0x08017230                copysign
 *(.rodata)
 .rodata        0x08017248       0x30 ./QS/impl/QS_uart_stm32f4.o
 .rodata        0x08017278        0x1 ./QS/QS_adc.o
 *fill*         0x08017279        0x3 00
 .rodata        0x0801727c      0x448 ./QS/QS_ax12.o
 .rodata        0x080176c4      0x1c4 ./QS/QS_can.o
 .rodata        0x08017888       0x60 ./QS/QS_outputlog.o
 .rodata        0x080178e8       0x24 ./QS/QS_sys.o
 .rodata        0x0801790c      0x354 ./QS/QS_trap_handler.o
 .rodata        0x08017c60        0x8 ./Krusty/KActManager.o
 .rodata        0x08017c68       0x90 ./Krusty/KBall_launcher.o
 .rodata        0x08017cf8      0x154 ./Krusty/KBall_sorter.o
 .rodata        0x08017e4c       0xf0 ./Krusty/KFruit.o
 .rodata        0x08017f3c      0x188 ./Krusty/KLift.o
 .rodata        0x080180c4      0x1b0 ./Krusty/KPlate.o
 .rodata        0x08018274       0x94 ./Can_msg_processing.o
 .rodata        0x08018308      0x21c ./act_queue_utils.o
 .rodata        0x08018524      0x1c8 ./main.o
 *(.rodata*)
 .rodata.str1.4
                0x080186ec        0x2 c:/program files (x86)/eclipse-arm-eseo/gcc-arm-none-eabi-4_7-2013q2-20130614-win32/gnu tools arm embedded/4.7 2013q2/bin/../lib/gcc/arm-none-eabi/4.7.4/../../../../arm-none-eabi/lib/armv7e-m\libg.a(lib_a-impure.o)
                                  0x4 (size before relaxing)
 *fill*         0x080186ee        0x2 00
 .rodata._global_impure_ptr
                0x080186f0        0x4 c:/program files (x86)/eclipse-arm-eseo/gcc-arm-none-eabi-4_7-2013q2-20130614-win32/gnu tools arm embedded/4.7 2013q2/bin/../lib/gcc/arm-none-eabi/4.7.4/../../../../arm-none-eabi/lib/armv7e-m\libg.a(lib_a-impure.o)
                0x080186f0                _global_impure_ptr
 .rodata.blanks.6735
                0x080186f4       0x10 c:/program files (x86)/eclipse-arm-eseo/gcc-arm-none-eabi-4_7-2013q2-20130614-win32/gnu tools arm embedded/4.7 2013q2/bin/../lib/gcc/arm-none-eabi/4.7.4/../../../../arm-none-eabi/lib/armv7e-m\libg.a(lib_a-vfprintf.o)
 .rodata.str1.4
                0x08018704       0x42 c:/program files (x86)/eclipse-arm-eseo/gcc-arm-none-eabi-4_7-2013q2-20130614-win32/gnu tools arm embedded/4.7 2013q2/bin/../lib/gcc/arm-none-eabi/4.7.4/../../../../arm-none-eabi/lib/armv7e-m\libg.a(lib_a-vfprintf.o)
                                 0x44 (size before relaxing)
 *fill*         0x08018746        0x2 00
 .rodata.zeroes.6736
                0x08018748       0x10 c:/program files (x86)/eclipse-arm-eseo/gcc-arm-none-eabi-4_7-2013q2-20130614-win32/gnu tools arm embedded/4.7 2013q2/bin/../lib/gcc/arm-none-eabi/4.7.4/../../../../arm-none-eabi/lib/armv7e-m\libg.a(lib_a-vfprintf.o)
 .rodata.str1.4
                0x08018758       0x10 c:/program files (x86)/eclipse-arm-eseo/gcc-arm-none-eabi-4_7-2013q2-20130614-win32/gnu tools arm embedded/4.7 2013q2/bin/../lib/gcc/arm-none-eabi/4.7.4/../../../../arm-none-eabi/lib/armv7e-m\libg.a(lib_a-dtoa.o)
                                 0x14 (size before relaxing)
 .rodata.str1.4
                0x08018768        0xc c:/program files (x86)/eclipse-arm-eseo/gcc-arm-none-eabi-4_7-2013q2-20130614-win32/gnu tools arm embedded/4.7 2013q2/bin/../lib/gcc/arm-none-eabi/4.7.4/../../../../arm-none-eabi/lib/armv7e-m\libg.a(lib_a-locale.o)
                                 0x14 (size before relaxing)
 .rodata.p05.5242
                0x08018774        0xc c:/program files (x86)/eclipse-arm-eseo/gcc-arm-none-eabi-4_7-2013q2-20130614-win32/gnu tools arm embedded/4.7 2013q2/bin/../lib/gcc/arm-none-eabi/4.7.4/../../../../arm-none-eabi/lib/armv7e-m\libg.a(lib_a-mprec.o)
 .rodata.__mprec_tens
                0x08018780       0xc8 c:/program files (x86)/eclipse-arm-eseo/gcc-arm-none-eabi-4_7-2013q2-20130614-win32/gnu tools arm embedded/4.7 2013q2/bin/../lib/gcc/arm-none-eabi/4.7.4/../../../../arm-none-eabi/lib/armv7e-m\libg.a(lib_a-mprec.o)
                0x08018780                __mprec_tens
 .rodata.__mprec_bigtens
                0x08018848       0x28 c:/program files (x86)/eclipse-arm-eseo/gcc-arm-none-eabi-4_7-2013q2-20130614-win32/gnu tools arm embedded/4.7 2013q2/bin/../lib/gcc/arm-none-eabi/4.7.4/../../../../arm-none-eabi/lib/armv7e-m\libg.a(lib_a-mprec.o)
                0x08018848                __mprec_bigtens
 .rodata.__mprec_tinytens
                0x08018870       0x28 c:/program files (x86)/eclipse-arm-eseo/gcc-arm-none-eabi-4_7-2013q2-20130614-win32/gnu tools arm embedded/4.7 2013q2/bin/../lib/gcc/arm-none-eabi/4.7.4/../../../../arm-none-eabi/lib/armv7e-m\libg.a(lib_a-mprec.o)
                0x08018870                __mprec_tinytens
 .rodata.blanks.6678
                0x08018898       0x10 c:/program files (x86)/eclipse-arm-eseo/gcc-arm-none-eabi-4_7-2013q2-20130614-win32/gnu tools arm embedded/4.7 2013q2/bin/../lib/gcc/arm-none-eabi/4.7.4/../../../../arm-none-eabi/lib/armv7e-m\libg.a(lib_a-vfiprintf.o)
 .rodata.str1.4
                0x00000000       0x30 c:/program files (x86)/eclipse-arm-eseo/gcc-arm-none-eabi-4_7-2013q2-20130614-win32/gnu tools arm embedded/4.7 2013q2/bin/../lib/gcc/arm-none-eabi/4.7.4/../../../../arm-none-eabi/lib/armv7e-m\libg.a(lib_a-vfiprintf.o)
 .rodata.zeroes.6679
                0x080188a8       0x10 c:/program files (x86)/eclipse-arm-eseo/gcc-arm-none-eabi-4_7-2013q2-20130614-win32/gnu tools arm embedded/4.7 2013q2/bin/../lib/gcc/arm-none-eabi/4.7.4/../../../../arm-none-eabi/lib/armv7e-m\libg.a(lib_a-vfiprintf.o)
 .rodata.atanlo
                0x080188b8       0x20 c:/program files (x86)/eclipse-arm-eseo/gcc-arm-none-eabi-4_7-2013q2-20130614-win32/gnu tools arm embedded/4.7 2013q2/bin/../lib/gcc/arm-none-eabi/4.7.4/../../../../arm-none-eabi/lib/armv7e-m\libm.a(lib_a-s_atan.o)
 .rodata.atanhi
                0x080188d8       0x20 c:/program files (x86)/eclipse-arm-eseo/gcc-arm-none-eabi-4_7-2013q2-20130614-win32/gnu tools arm embedded/4.7 2013q2/bin/../lib/gcc/arm-none-eabi/4.7.4/../../../../arm-none-eabi/lib/armv7e-m\libm.a(lib_a-s_atan.o)
 .rodata.npio2_hw
                0x080188f8       0x80 c:/program files (x86)/eclipse-arm-eseo/gcc-arm-none-eabi-4_7-2013q2-20130614-win32/gnu tools arm embedded/4.7 2013q2/bin/../lib/gcc/arm-none-eabi/4.7.4/../../../../arm-none-eabi/lib/armv7e-m\libm.a(lib_a-e_rem_pio2.o)
 .rodata.two_over_pi
                0x08018978      0x108 c:/program files (x86)/eclipse-arm-eseo/gcc-arm-none-eabi-4_7-2013q2-20130614-win32/gnu tools arm embedded/4.7 2013q2/bin/../lib/gcc/arm-none-eabi/4.7.4/../../../../arm-none-eabi/lib/armv7e-m\libm.a(lib_a-e_rem_pio2.o)
 .rodata.init_jk
                0x08018a80       0x10 c:/program files (x86)/eclipse-arm-eseo/gcc-arm-none-eabi-4_7-2013q2-20130614-win32/gnu tools arm embedded/4.7 2013q2/bin/../lib/gcc/arm-none-eabi/4.7.4/../../../../arm-none-eabi/lib/armv7e-m\libm.a(lib_a-k_rem_pio2.o)
 .rodata.PIo2   0x08018a90       0x40 c:/program files (x86)/eclipse-arm-eseo/gcc-arm-none-eabi-4_7-2013q2-20130614-win32/gnu tools arm embedded/4.7 2013q2/bin/../lib/gcc/arm-none-eabi/4.7.4/../../../../arm-none-eabi/lib/armv7e-m\libm.a(lib_a-k_rem_pio2.o)
 *(.glue_7)
 .glue_7        0x00000000        0x0 linker stubs
 *(.glue_7t)
 .glue_7t       0x00000000        0x0 linker stubs
                0x08018ad0                . = ALIGN (0x4)
                0x08018ad0                _etext = .

.vfp11_veneer   0x08018ad0        0x0
 .vfp11_veneer  0x00000000        0x0 linker stubs

.v4_bx          0x08018ad0        0x0
 .v4_bx         0x00000000        0x0 linker stubs

.iplt           0x08018ad0        0x0
 .iplt          0x00000000        0x0 ./Tiny/TActManager.o

.ARM.extab      0x08018ad0        0x0
 *(.ARM.extab* .gnu.linkonce.armextab.*)
 .ARM.extab     0x08018ad0        0x0 c:/program files (x86)/eclipse-arm-eseo/gcc-arm-none-eabi-4_7-2013q2-20130614-win32/gnu tools arm embedded/4.7 2013q2/bin/../lib/gcc/arm-none-eabi/4.7.4/armv7e-m\libgcc.a(_divdi3.o)
 .ARM.extab     0x08018ad0        0x0 c:/program files (x86)/eclipse-arm-eseo/gcc-arm-none-eabi-4_7-2013q2-20130614-win32/gnu tools arm embedded/4.7 2013q2/bin/../lib/gcc/arm-none-eabi/4.7.4/armv7e-m\libgcc.a(_udivdi3.o)
                0x08018ad0                __exidx_start = .

.ARM.exidx      0x08018ad0        0x8
 *(.ARM.exidx* .gnu.linkonce.armexidx.*)
 .ARM.exidx     0x08018ad0        0x8 c:/program files (x86)/eclipse-arm-eseo/gcc-arm-none-eabi-4_7-2013q2-20130614-win32/gnu tools arm embedded/4.7 2013q2/bin/../lib/gcc/arm-none-eabi/4.7.4/armv7e-m\libgcc.a(_divdi3.o)
 .ARM.exidx     0x08018ad8        0x0 c:/program files (x86)/eclipse-arm-eseo/gcc-arm-none-eabi-4_7-2013q2-20130614-win32/gnu tools arm embedded/4.7 2013q2/bin/../lib/gcc/arm-none-eabi/4.7.4/armv7e-m\libgcc.a(_udivdi3.o)
                                  0x8 (size before relaxing)
                0x08018ad8                __exidx_end = .
                0x08018ad8                _sidata = __exidx_end

.rel.dyn        0x08018ad8        0x0
 .rel.iplt      0x00000000        0x0 ./Tiny/TActManager.o

.ROarraySection
 *(.ROarraySection)

.data           0x20000000      0x8f4 load address 0x08018ad8
                0x20000000                . = ALIGN (0x4)
                0x20000000                _sdata = .
 *(.data)
 .data          0x20000000        0x0 ./Tiny/TActManager.o
 .data          0x20000000        0x0 ./Tiny/TBall_inflater.o
 .data          0x20000000        0x0 ./Tiny/TCandle_color_sensor.o
 .data          0x20000000        0x0 ./Tiny/THammer.o
 .data          0x20000000        0x0 ./Tiny/TPlier.o
 .data          0x20000000        0x0 ./QS/impl/QS_uart_stm32f4.o
 .data          0x20000000        0x0 ./QS/QS_CapteurCouleurCW.o
 .data          0x20000000        0x0 ./QS/QS_DCMotor2.o
 .data          0x20000000        0x0 ./QS/QS_Step_motor.o
 .data          0x20000000        0x4 ./QS/QS_adc.o
 .data          0x20000004        0x0 ./QS/QS_ax12.o
 .data          0x20000004        0x0 ./QS/QS_buffer_fifo.o
 .data          0x20000004        0x0 ./QS/QS_buttons.o
 .data          0x20000004        0x0 ./QS/QS_can.o
 .data          0x20000004        0x0 ./QS/QS_can_over_uart.o
 .data          0x20000004        0x0 ./QS/QS_can_over_xbee.o
 .data          0x20000004        0x0 ./QS/QS_configCheck.o
 .data          0x20000004        0x0 ./QS/QS_external_it.o
 .data          0x20000004        0x0 ./QS/QS_global_vars.o
 .data          0x20000004        0x0 ./QS/QS_i2c.o
 .data          0x20000004        0x1 ./QS/QS_outputlog.o
 .data          0x20000005        0x0 ./QS/QS_ports.o
 .data          0x20000005        0x0 ./QS/QS_pwm.o
 .data          0x20000005        0x0 ./QS/QS_qei.o
 .data          0x20000005        0x0 ./QS/QS_rf.o
 .data          0x20000005        0x0 ./QS/QS_servo.o
 .data          0x20000005        0x0 ./QS/QS_spi.o
 *fill*         0x20000005        0x3 00
 .data          0x20000008        0x4 ./QS/QS_sys.o
                0x20000008                environ
 .data          0x2000000c        0x0 ./QS/QS_timer.o
 .data          0x2000000c        0x0 ./QS/QS_trap_handler.o
 .data          0x2000000c        0x0 ./QS/QS_uart.o
 .data          0x2000000c        0x0 ./QS/QS_watchdog.o
 .data          0x2000000c        0x0 ./QS/QS_who_am_i.o
 .data          0x2000000c        0x0 ./QS/startup_stm32f40xx.o
 .data          0x2000000c        0x0 ./Krusty/KActManager.o
 .data          0x2000000c        0x0 ./Krusty/KBall_launcher.o
 .data          0x2000000c        0x1 ./Krusty/KBall_sorter.o
 .data          0x2000000d        0x0 ./Krusty/KFruit.o
 .data          0x2000000d        0x0 ./Krusty/KLift.o
 .data          0x2000000d        0x0 ./Krusty/KPlate.o
 .data          0x2000000d        0x0 ./Krusty/template.o
 .data          0x2000000d        0x0 ./Can_msg_processing.o
 .data          0x2000000d        0x0 ./act_queue_utils.o
 .data          0x2000000d        0x0 ./clock.o
 .data          0x2000000d        0x0 ./main.o
 .data          0x2000000d        0x0 ./maths_home.o
 .data          0x2000000d        0x0 ./queue.o
 .data          0x2000000d        0x0 ../stm32f4xx\libstm32f4xx.a(misc.o)
 .data          0x2000000d        0x0 ../stm32f4xx\libstm32f4xx.a(stm32f4xx_adc.o)
 .data          0x2000000d        0x0 ../stm32f4xx\libstm32f4xx.a(stm32f4xx_can.o)
 .data          0x2000000d        0x0 ../stm32f4xx\libstm32f4xx.a(stm32f4xx_dma.o)
 .data          0x2000000d        0x0 ../stm32f4xx\libstm32f4xx.a(stm32f4xx_exti.o)
 .data          0x2000000d        0x0 ../stm32f4xx\libstm32f4xx.a(stm32f4xx_flash.o)
 .data          0x2000000d        0x0 ../stm32f4xx\libstm32f4xx.a(stm32f4xx_gpio.o)
 .data          0x2000000d        0x0 ../stm32f4xx\libstm32f4xx.a(stm32f4xx_rcc.o)
 .data          0x2000000d        0x0 ../stm32f4xx\libstm32f4xx.a(stm32f4xx_syscfg.o)
 .data          0x2000000d        0x0 ../stm32f4xx\libstm32f4xx.a(stm32f4xx_tim.o)
 .data          0x2000000d        0x0 ../stm32f4xx\libstm32f4xx.a(stm32f4xx_usart.o)
 .data          0x2000000d        0x0 ../stm32f4xx\libstm32f4xx.a(system_stm32f4xx.o)
 .data          0x2000000d        0x0 c:/program files (x86)/eclipse-arm-eseo/gcc-arm-none-eabi-4_7-2013q2-20130614-win32/gnu tools arm embedded/4.7 2013q2/bin/../lib/gcc/arm-none-eabi/4.7.4/armv7e-m\libgcc.a(_arm_addsubdf3.o)
 .data          0x2000000d        0x0 c:/program files (x86)/eclipse-arm-eseo/gcc-arm-none-eabi-4_7-2013q2-20130614-win32/gnu tools arm embedded/4.7 2013q2/bin/../lib/gcc/arm-none-eabi/4.7.4/armv7e-m\libgcc.a(_arm_muldivdf3.o)
 .data          0x2000000d        0x0 c:/program files (x86)/eclipse-arm-eseo/gcc-arm-none-eabi-4_7-2013q2-20130614-win32/gnu tools arm embedded/4.7 2013q2/bin/../lib/gcc/arm-none-eabi/4.7.4/armv7e-m\libgcc.a(_arm_fixdfsi.o)
 .data          0x2000000d        0x0 c:/program files (x86)/eclipse-arm-eseo/gcc-arm-none-eabi-4_7-2013q2-20130614-win32/gnu tools arm embedded/4.7 2013q2/bin/../lib/gcc/arm-none-eabi/4.7.4/../../../../arm-none-eabi/lib/armv7e-m\libg.a(lib_a-errno.o)
 .data          0x2000000d        0x0 c:/program files (x86)/eclipse-arm-eseo/gcc-arm-none-eabi-4_7-2013q2-20130614-win32/gnu tools arm embedded/4.7 2013q2/bin/../lib/gcc/arm-none-eabi/4.7.4/../../../../arm-none-eabi/lib/armv7e-m\libg.a(lib_a-impure.o)
 .data          0x2000000d        0x0 c:/program files (x86)/eclipse-arm-eseo/gcc-arm-none-eabi-4_7-2013q2-20130614-win32/gnu tools arm embedded/4.7 2013q2/bin/../lib/gcc/arm-none-eabi/4.7.4/../../../../arm-none-eabi/lib/armv7e-m\libg.a(lib_a-printf.o)
 .data          0x2000000d        0x0 c:/program files (x86)/eclipse-arm-eseo/gcc-arm-none-eabi-4_7-2013q2-20130614-win32/gnu tools arm embedded/4.7 2013q2/bin/../lib/gcc/arm-none-eabi/4.7.4/../../../../arm-none-eabi/lib/armv7e-m\libg.a(lib_a-setvbuf.o)
 .data          0x2000000d        0x0 c:/program files (x86)/eclipse-arm-eseo/gcc-arm-none-eabi-4_7-2013q2-20130614-win32/gnu tools arm embedded/4.7 2013q2/bin/../lib/gcc/arm-none-eabi/4.7.4/../../../../arm-none-eabi/lib/armv7e-m\libg.a(lib_a-vfprintf.o)
 .data          0x2000000d        0x0 c:/program files (x86)/eclipse-arm-eseo/gcc-arm-none-eabi-4_7-2013q2-20130614-win32/gnu tools arm embedded/4.7 2013q2/bin/../lib/gcc/arm-none-eabi/4.7.4/../../../../arm-none-eabi/lib/armv7e-m\libg.a(lib_a-vprintf.o)
 .data          0x2000000d        0x0 c:/program files (x86)/eclipse-arm-eseo/gcc-arm-none-eabi-4_7-2013q2-20130614-win32/gnu tools arm embedded/4.7 2013q2/bin/../lib/gcc/arm-none-eabi/4.7.4/../../../../arm-none-eabi/lib/armv7e-m\libg.a(lib_a-wsetup.o)
 .data          0x2000000d        0x0 c:/program files (x86)/eclipse-arm-eseo/gcc-arm-none-eabi-4_7-2013q2-20130614-win32/gnu tools arm embedded/4.7 2013q2/bin/../lib/gcc/arm-none-eabi/4.7.4/../../../../arm-none-eabi/lib/armv7e-m\libg.a(lib_a-dtoa.o)
 .data          0x2000000d        0x0 c:/program files (x86)/eclipse-arm-eseo/gcc-arm-none-eabi-4_7-2013q2-20130614-win32/gnu tools arm embedded/4.7 2013q2/bin/../lib/gcc/arm-none-eabi/4.7.4/../../../../arm-none-eabi/lib/armv7e-m\libg.a(lib_a-fflush.o)
 .data          0x2000000d        0x0 c:/program files (x86)/eclipse-arm-eseo/gcc-arm-none-eabi-4_7-2013q2-20130614-win32/gnu tools arm embedded/4.7 2013q2/bin/../lib/gcc/arm-none-eabi/4.7.4/../../../../arm-none-eabi/lib/armv7e-m\libg.a(lib_a-findfp.o)
 .data          0x2000000d        0x0 c:/program files (x86)/eclipse-arm-eseo/gcc-arm-none-eabi-4_7-2013q2-20130614-win32/gnu tools arm embedded/4.7 2013q2/bin/../lib/gcc/arm-none-eabi/4.7.4/../../../../arm-none-eabi/lib/armv7e-m\libg.a(lib_a-freer.o)
 .data          0x2000000d        0x0 c:/program files (x86)/eclipse-arm-eseo/gcc-arm-none-eabi-4_7-2013q2-20130614-win32/gnu tools arm embedded/4.7 2013q2/bin/../lib/gcc/arm-none-eabi/4.7.4/../../../../arm-none-eabi/lib/armv7e-m\libg.a(lib_a-fwalk.o)
 .data          0x2000000d        0x0 c:/program files (x86)/eclipse-arm-eseo/gcc-arm-none-eabi-4_7-2013q2-20130614-win32/gnu tools arm embedded/4.7 2013q2/bin/../lib/gcc/arm-none-eabi/4.7.4/../../../../arm-none-eabi/lib/armv7e-m\libg.a(lib_a-locale.o)
 .data          0x2000000d        0x0 c:/program files (x86)/eclipse-arm-eseo/gcc-arm-none-eabi-4_7-2013q2-20130614-win32/gnu tools arm embedded/4.7 2013q2/bin/../lib/gcc/arm-none-eabi/4.7.4/../../../../arm-none-eabi/lib/armv7e-m\libg.a(lib_a-makebuf.o)
 .data          0x2000000d        0x0 c:/program files (x86)/eclipse-arm-eseo/gcc-arm-none-eabi-4_7-2013q2-20130614-win32/gnu tools arm embedded/4.7 2013q2/bin/../lib/gcc/arm-none-eabi/4.7.4/../../../../arm-none-eabi/lib/armv7e-m\libg.a(lib_a-malloc.o)
 .data          0x2000000d        0x0 c:/program files (x86)/eclipse-arm-eseo/gcc-arm-none-eabi-4_7-2013q2-20130614-win32/gnu tools arm embedded/4.7 2013q2/bin/../lib/gcc/arm-none-eabi/4.7.4/../../../../arm-none-eabi/lib/armv7e-m\libg.a(lib_a-mallocr.o)
 .data          0x2000000d        0x0 c:/program files (x86)/eclipse-arm-eseo/gcc-arm-none-eabi-4_7-2013q2-20130614-win32/gnu tools arm embedded/4.7 2013q2/bin/../lib/gcc/arm-none-eabi/4.7.4/../../../../arm-none-eabi/lib/armv7e-m\libg.a(lib_a-memchr.o)
 .data          0x2000000d        0x0 c:/program files (x86)/eclipse-arm-eseo/gcc-arm-none-eabi-4_7-2013q2-20130614-win32/gnu tools arm embedded/4.7 2013q2/bin/../lib/gcc/arm-none-eabi/4.7.4/../../../../arm-none-eabi/lib/armv7e-m\libg.a(lib_a-memcpy.o)
 .data          0x2000000d        0x0 c:/program files (x86)/eclipse-arm-eseo/gcc-arm-none-eabi-4_7-2013q2-20130614-win32/gnu tools arm embedded/4.7 2013q2/bin/../lib/gcc/arm-none-eabi/4.7.4/../../../../arm-none-eabi/lib/armv7e-m\libg.a(lib_a-memset.o)
 .data          0x2000000d        0x0 c:/program files (x86)/eclipse-arm-eseo/gcc-arm-none-eabi-4_7-2013q2-20130614-win32/gnu tools arm embedded/4.7 2013q2/bin/../lib/gcc/arm-none-eabi/4.7.4/../../../../arm-none-eabi/lib/armv7e-m\libg.a(lib_a-mlock.o)
 .data          0x2000000d        0x0 c:/program files (x86)/eclipse-arm-eseo/gcc-arm-none-eabi-4_7-2013q2-20130614-win32/gnu tools arm embedded/4.7 2013q2/bin/../lib/gcc/arm-none-eabi/4.7.4/../../../../arm-none-eabi/lib/armv7e-m\libg.a(lib_a-mprec.o)
 .data          0x2000000d        0x0 c:/program files (x86)/eclipse-arm-eseo/gcc-arm-none-eabi-4_7-2013q2-20130614-win32/gnu tools arm embedded/4.7 2013q2/bin/../lib/gcc/arm-none-eabi/4.7.4/../../../../arm-none-eabi/lib/armv7e-m\libg.a(lib_a-s_fpclassify.o)
 .data          0x2000000d        0x0 c:/program files (x86)/eclipse-arm-eseo/gcc-arm-none-eabi-4_7-2013q2-20130614-win32/gnu tools arm embedded/4.7 2013q2/bin/../lib/gcc/arm-none-eabi/4.7.4/../../../../arm-none-eabi/lib/armv7e-m\libg.a(lib_a-sbrkr.o)
 .data          0x2000000d        0x0 c:/program files (x86)/eclipse-arm-eseo/gcc-arm-none-eabi-4_7-2013q2-20130614-win32/gnu tools arm embedded/4.7 2013q2/bin/../lib/gcc/arm-none-eabi/4.7.4/../../../../arm-none-eabi/lib/armv7e-m\libg.a(lib_a-stdio.o)
 .data          0x2000000d        0x0 c:/program files (x86)/eclipse-arm-eseo/gcc-arm-none-eabi-4_7-2013q2-20130614-win32/gnu tools arm embedded/4.7 2013q2/bin/../lib/gcc/arm-none-eabi/4.7.4/../../../../arm-none-eabi/lib/armv7e-m\libg.a(lib_a-strcmp.o)
 .data          0x2000000d        0x0 c:/program files (x86)/eclipse-arm-eseo/gcc-arm-none-eabi-4_7-2013q2-20130614-win32/gnu tools arm embedded/4.7 2013q2/bin/../lib/gcc/arm-none-eabi/4.7.4/../../../../arm-none-eabi/lib/armv7e-m\libg.a(lib_a-strlen.o)
 .data          0x2000000d        0x0 c:/program files (x86)/eclipse-arm-eseo/gcc-arm-none-eabi-4_7-2013q2-20130614-win32/gnu tools arm embedded/4.7 2013q2/bin/../lib/gcc/arm-none-eabi/4.7.4/../../../../arm-none-eabi/lib/armv7e-m\libg.a(lib_a-vfiprintf.o)
 .data          0x2000000d        0x0 c:/program files (x86)/eclipse-arm-eseo/gcc-arm-none-eabi-4_7-2013q2-20130614-win32/gnu tools arm embedded/4.7 2013q2/bin/../lib/gcc/arm-none-eabi/4.7.4/../../../../arm-none-eabi/lib/armv7e-m\libg.a(lib_a-writer.o)
 .data          0x2000000d        0x0 c:/program files (x86)/eclipse-arm-eseo/gcc-arm-none-eabi-4_7-2013q2-20130614-win32/gnu tools arm embedded/4.7 2013q2/bin/../lib/gcc/arm-none-eabi/4.7.4/../../../../arm-none-eabi/lib/armv7e-m\libg.a(lib_a-callocr.o)
 .data          0x2000000d        0x0 c:/program files (x86)/eclipse-arm-eseo/gcc-arm-none-eabi-4_7-2013q2-20130614-win32/gnu tools arm embedded/4.7 2013q2/bin/../lib/gcc/arm-none-eabi/4.7.4/../../../../arm-none-eabi/lib/armv7e-m\libg.a(lib_a-closer.o)
 .data          0x2000000d        0x0 c:/program files (x86)/eclipse-arm-eseo/gcc-arm-none-eabi-4_7-2013q2-20130614-win32/gnu tools arm embedded/4.7 2013q2/bin/../lib/gcc/arm-none-eabi/4.7.4/../../../../arm-none-eabi/lib/armv7e-m\libg.a(lib_a-fclose.o)
 .data          0x2000000d        0x0 c:/program files (x86)/eclipse-arm-eseo/gcc-arm-none-eabi-4_7-2013q2-20130614-win32/gnu tools arm embedded/4.7 2013q2/bin/../lib/gcc/arm-none-eabi/4.7.4/../../../../arm-none-eabi/lib/armv7e-m\libg.a(lib_a-fputwc.o)
 .data          0x2000000d        0x0 c:/program files (x86)/eclipse-arm-eseo/gcc-arm-none-eabi-4_7-2013q2-20130614-win32/gnu tools arm embedded/4.7 2013q2/bin/../lib/gcc/arm-none-eabi/4.7.4/../../../../arm-none-eabi/lib/armv7e-m\libg.a(lib_a-fstatr.o)
 .data          0x2000000d        0x0 c:/program files (x86)/eclipse-arm-eseo/gcc-arm-none-eabi-4_7-2013q2-20130614-win32/gnu tools arm embedded/4.7 2013q2/bin/../lib/gcc/arm-none-eabi/4.7.4/../../../../arm-none-eabi/lib/armv7e-m\libg.a(lib_a-fvwrite.o)
 .data          0x2000000d        0x0 c:/program files (x86)/eclipse-arm-eseo/gcc-arm-none-eabi-4_7-2013q2-20130614-win32/gnu tools arm embedded/4.7 2013q2/bin/../lib/gcc/arm-none-eabi/4.7.4/../../../../arm-none-eabi/lib/armv7e-m\libg.a(lib_a-isattyr.o)
 .data          0x2000000d        0x0 c:/program files (x86)/eclipse-arm-eseo/gcc-arm-none-eabi-4_7-2013q2-20130614-win32/gnu tools arm embedded/4.7 2013q2/bin/../lib/gcc/arm-none-eabi/4.7.4/../../../../arm-none-eabi/lib/armv7e-m\libg.a(lib_a-lseekr.o)
 .data          0x2000000d        0x0 c:/program files (x86)/eclipse-arm-eseo/gcc-arm-none-eabi-4_7-2013q2-20130614-win32/gnu tools arm embedded/4.7 2013q2/bin/../lib/gcc/arm-none-eabi/4.7.4/../../../../arm-none-eabi/lib/armv7e-m\libg.a(lib_a-memmove.o)
 .data          0x2000000d        0x0 c:/program files (x86)/eclipse-arm-eseo/gcc-arm-none-eabi-4_7-2013q2-20130614-win32/gnu tools arm embedded/4.7 2013q2/bin/../lib/gcc/arm-none-eabi/4.7.4/../../../../arm-none-eabi/lib/armv7e-m\libg.a(lib_a-readr.o)
 .data          0x2000000d        0x0 c:/program files (x86)/eclipse-arm-eseo/gcc-arm-none-eabi-4_7-2013q2-20130614-win32/gnu tools arm embedded/4.7 2013q2/bin/../lib/gcc/arm-none-eabi/4.7.4/../../../../arm-none-eabi/lib/armv7e-m\libg.a(lib_a-reallocr.o)
 .data          0x2000000d        0x0 c:/program files (x86)/eclipse-arm-eseo/gcc-arm-none-eabi-4_7-2013q2-20130614-win32/gnu tools arm embedded/4.7 2013q2/bin/../lib/gcc/arm-none-eabi/4.7.4/../../../../arm-none-eabi/lib/armv7e-m\libg.a(lib_a-reent.o)
 .data          0x2000000d        0x0 c:/program files (x86)/eclipse-arm-eseo/gcc-arm-none-eabi-4_7-2013q2-20130614-win32/gnu tools arm embedded/4.7 2013q2/bin/../lib/gcc/arm-none-eabi/4.7.4/../../../../arm-none-eabi/lib/armv7e-m\libg.a(lib_a-wbuf.o)
 .data          0x2000000d        0x0 c:/program files (x86)/eclipse-arm-eseo/gcc-arm-none-eabi-4_7-2013q2-20130614-win32/gnu tools arm embedded/4.7 2013q2/bin/../lib/gcc/arm-none-eabi/4.7.4/../../../../arm-none-eabi/lib/armv7e-m\libg.a(lib_a-wcrtomb.o)
 .data          0x2000000d        0x0 c:/program files (x86)/eclipse-arm-eseo/gcc-arm-none-eabi-4_7-2013q2-20130614-win32/gnu tools arm embedded/4.7 2013q2/bin/../lib/gcc/arm-none-eabi/4.7.4/../../../../arm-none-eabi/lib/armv7e-m\libg.a(lib_a-wctomb_r.o)
 .data          0x2000000d        0x0 c:/program files (x86)/eclipse-arm-eseo/gcc-arm-none-eabi-4_7-2013q2-20130614-win32/gnu tools arm embedded/4.7 2013q2/bin/../lib/gcc/arm-none-eabi/4.7.4/armv7e-m\libgcc.a(_arm_cmpdf2.o)
 .data          0x2000000d        0x0 c:/program files (x86)/eclipse-arm-eseo/gcc-arm-none-eabi-4_7-2013q2-20130614-win32/gnu tools arm embedded/4.7 2013q2/bin/../lib/gcc/arm-none-eabi/4.7.4/armv7e-m\libgcc.a(_aeabi_uldivmod.o)
 .data          0x2000000d        0x0 c:/program files (x86)/eclipse-arm-eseo/gcc-arm-none-eabi-4_7-2013q2-20130614-win32/gnu tools arm embedded/4.7 2013q2/bin/../lib/gcc/arm-none-eabi/4.7.4/armv7e-m\libgcc.a(bpabi.o)
 .data          0x2000000d        0x0 c:/program files (x86)/eclipse-arm-eseo/gcc-arm-none-eabi-4_7-2013q2-20130614-win32/gnu tools arm embedded/4.7 2013q2/bin/../lib/gcc/arm-none-eabi/4.7.4/armv7e-m\libgcc.a(_dvmd_tls.o)
 .data          0x2000000d        0x0 c:/program files (x86)/eclipse-arm-eseo/gcc-arm-none-eabi-4_7-2013q2-20130614-win32/gnu tools arm embedded/4.7 2013q2/bin/../lib/gcc/arm-none-eabi/4.7.4/armv7e-m\libgcc.a(_divdi3.o)
 .data          0x2000000d        0x0 c:/program files (x86)/eclipse-arm-eseo/gcc-arm-none-eabi-4_7-2013q2-20130614-win32/gnu tools arm embedded/4.7 2013q2/bin/../lib/gcc/arm-none-eabi/4.7.4/armv7e-m\libgcc.a(_udivdi3.o)
 .data          0x2000000d        0x0 c:/program files (x86)/eclipse-arm-eseo/gcc-arm-none-eabi-4_7-2013q2-20130614-win32/gnu tools arm embedded/4.7 2013q2/bin/../lib/gcc/arm-none-eabi/4.7.4/../../../../arm-none-eabi/lib/armv7e-m\libm.a(lib_a-s_atan.o)
 .data          0x2000000d        0x0 c:/program files (x86)/eclipse-arm-eseo/gcc-arm-none-eabi-4_7-2013q2-20130614-win32/gnu tools arm embedded/4.7 2013q2/bin/../lib/gcc/arm-none-eabi/4.7.4/../../../../arm-none-eabi/lib/armv7e-m\libm.a(lib_a-s_cos.o)
 .data          0x2000000d        0x0 c:/program files (x86)/eclipse-arm-eseo/gcc-arm-none-eabi-4_7-2013q2-20130614-win32/gnu tools arm embedded/4.7 2013q2/bin/../lib/gcc/arm-none-eabi/4.7.4/../../../../arm-none-eabi/lib/armv7e-m\libm.a(lib_a-s_fabs.o)
 .data          0x2000000d        0x0 c:/program files (x86)/eclipse-arm-eseo/gcc-arm-none-eabi-4_7-2013q2-20130614-win32/gnu tools arm embedded/4.7 2013q2/bin/../lib/gcc/arm-none-eabi/4.7.4/../../../../arm-none-eabi/lib/armv7e-m\libm.a(lib_a-s_sin.o)
 .data          0x2000000d        0x0 c:/program files (x86)/eclipse-arm-eseo/gcc-arm-none-eabi-4_7-2013q2-20130614-win32/gnu tools arm embedded/4.7 2013q2/bin/../lib/gcc/arm-none-eabi/4.7.4/../../../../arm-none-eabi/lib/armv7e-m\libm.a(lib_a-e_rem_pio2.o)
 .data          0x2000000d        0x0 c:/program files (x86)/eclipse-arm-eseo/gcc-arm-none-eabi-4_7-2013q2-20130614-win32/gnu tools arm embedded/4.7 2013q2/bin/../lib/gcc/arm-none-eabi/4.7.4/../../../../arm-none-eabi/lib/armv7e-m\libm.a(lib_a-k_cos.o)
 .data          0x2000000d        0x0 c:/program files (x86)/eclipse-arm-eseo/gcc-arm-none-eabi-4_7-2013q2-20130614-win32/gnu tools arm embedded/4.7 2013q2/bin/../lib/gcc/arm-none-eabi/4.7.4/../../../../arm-none-eabi/lib/armv7e-m\libm.a(lib_a-k_rem_pio2.o)
 .data          0x2000000d        0x0 c:/program files (x86)/eclipse-arm-eseo/gcc-arm-none-eabi-4_7-2013q2-20130614-win32/gnu tools arm embedded/4.7 2013q2/bin/../lib/gcc/arm-none-eabi/4.7.4/../../../../arm-none-eabi/lib/armv7e-m\libm.a(lib_a-k_sin.o)
 .data          0x2000000d        0x0 c:/program files (x86)/eclipse-arm-eseo/gcc-arm-none-eabi-4_7-2013q2-20130614-win32/gnu tools arm embedded/4.7 2013q2/bin/../lib/gcc/arm-none-eabi/4.7.4/../../../../arm-none-eabi/lib/armv7e-m\libm.a(lib_a-s_floor.o)
 .data          0x2000000d        0x0 c:/program files (x86)/eclipse-arm-eseo/gcc-arm-none-eabi-4_7-2013q2-20130614-win32/gnu tools arm embedded/4.7 2013q2/bin/../lib/gcc/arm-none-eabi/4.7.4/../../../../arm-none-eabi/lib/armv7e-m\libm.a(lib_a-s_scalbn.o)
 .data          0x2000000d        0x0 c:/program files (x86)/eclipse-arm-eseo/gcc-arm-none-eabi-4_7-2013q2-20130614-win32/gnu tools arm embedded/4.7 2013q2/bin/../lib/gcc/arm-none-eabi/4.7.4/../../../../arm-none-eabi/lib/armv7e-m\libm.a(lib_a-s_copysign.o)
 *(.data.*)
 .data.APBAHBPrescTable
                0x2000000d       0x10 ../stm32f4xx\libstm32f4xx.a(stm32f4xx_rcc.o)
 *fill*         0x2000001d        0x3 00
 .data.HSEClockSpeed
                0x20000020        0x4 ../stm32f4xx\libstm32f4xx.a(stm32f4xx_rcc.o)
                0x20000020                HSEClockSpeed
 .data.AHBPrescTable
                0x20000024       0x10 ../stm32f4xx\libstm32f4xx.a(system_stm32f4xx.o)
                0x20000024                AHBPrescTable
 .data.SystemCoreClock
                0x20000034        0x4 ../stm32f4xx\libstm32f4xx.a(system_stm32f4xx.o)
                0x20000034                SystemCoreClock
 .data.impure_data
                0x20000038      0x428 c:/program files (x86)/eclipse-arm-eseo/gcc-arm-none-eabi-4_7-2013q2-20130614-win32/gnu tools arm embedded/4.7 2013q2/bin/../lib/gcc/arm-none-eabi/4.7.4/../../../../arm-none-eabi/lib/armv7e-m\libg.a(lib_a-impure.o)
 .data._impure_ptr
                0x20000460        0x4 c:/program files (x86)/eclipse-arm-eseo/gcc-arm-none-eabi-4_7-2013q2-20130614-win32/gnu tools arm embedded/4.7 2013q2/bin/../lib/gcc/arm-none-eabi/4.7.4/../../../../arm-none-eabi/lib/armv7e-m\libg.a(lib_a-impure.o)
                0x20000460                _impure_ptr
 .data.lc_message_charset
                0x20000464       0x20 c:/program files (x86)/eclipse-arm-eseo/gcc-arm-none-eabi-4_7-2013q2-20130614-win32/gnu tools arm embedded/4.7 2013q2/bin/../lib/gcc/arm-none-eabi/4.7.4/../../../../arm-none-eabi/lib/armv7e-m\libg.a(lib_a-locale.o)
 .data.lconv    0x20000484       0x38 c:/program files (x86)/eclipse-arm-eseo/gcc-arm-none-eabi-4_7-2013q2-20130614-win32/gnu tools arm embedded/4.7 2013q2/bin/../lib/gcc/arm-none-eabi/4.7.4/../../../../arm-none-eabi/lib/armv7e-m\libg.a(lib_a-locale.o)
 .data.lc_ctype_charset
                0x200004bc       0x20 c:/program files (x86)/eclipse-arm-eseo/gcc-arm-none-eabi-4_7-2013q2-20130614-win32/gnu tools arm embedded/4.7 2013q2/bin/../lib/gcc/arm-none-eabi/4.7.4/../../../../arm-none-eabi/lib/armv7e-m\libg.a(lib_a-locale.o)
 .data.__mb_cur_max
                0x200004dc        0x4 c:/program files (x86)/eclipse-arm-eseo/gcc-arm-none-eabi-4_7-2013q2-20130614-win32/gnu tools arm embedded/4.7 2013q2/bin/../lib/gcc/arm-none-eabi/4.7.4/../../../../arm-none-eabi/lib/armv7e-m\libg.a(lib_a-locale.o)
                0x200004dc                __mb_cur_max
 .data.__malloc_av_
                0x200004e0      0x408 c:/program files (x86)/eclipse-arm-eseo/gcc-arm-none-eabi-4_7-2013q2-20130614-win32/gnu tools arm embedded/4.7 2013q2/bin/../lib/gcc/arm-none-eabi/4.7.4/../../../../arm-none-eabi/lib/armv7e-m\libg.a(lib_a-mallocr.o)
                0x200004e0                __malloc_av_
 .data.__malloc_trim_threshold
                0x200008e8        0x4 c:/program files (x86)/eclipse-arm-eseo/gcc-arm-none-eabi-4_7-2013q2-20130614-win32/gnu tools arm embedded/4.7 2013q2/bin/../lib/gcc/arm-none-eabi/4.7.4/../../../../arm-none-eabi/lib/armv7e-m\libg.a(lib_a-mallocr.o)
                0x200008e8                __malloc_trim_threshold
 .data.__malloc_sbrk_base
                0x200008ec        0x4 c:/program files (x86)/eclipse-arm-eseo/gcc-arm-none-eabi-4_7-2013q2-20130614-win32/gnu tools arm embedded/4.7 2013q2/bin/../lib/gcc/arm-none-eabi/4.7.4/../../../../arm-none-eabi/lib/armv7e-m\libg.a(lib_a-mallocr.o)
                0x200008ec                __malloc_sbrk_base
 .data.__wctomb
                0x200008f0        0x4 c:/program files (x86)/eclipse-arm-eseo/gcc-arm-none-eabi-4_7-2013q2-20130614-win32/gnu tools arm embedded/4.7 2013q2/bin/../lib/gcc/arm-none-eabi/4.7.4/../../../../arm-none-eabi/lib/armv7e-m\libg.a(lib_a-wctomb_r.o)
                0x200008f0                __wctomb
                0x200008f4                . = ALIGN (0x4)
                0x200008f4                _edata = .

.igot.plt       0x200008f4        0x0 load address 0x080193cc
 .igot.plt      0x00000000        0x0 ./Tiny/TActManager.o

.bss            0x200008f4     0x1790 load address 0x080193cc
                0x200008f4                . = ALIGN (0x4)
                0x200008f4                _sbss = .
 *(.bss)
 .bss           0x200008f4        0x0 ./Tiny/TActManager.o
 .bss           0x200008f4        0x0 ./Tiny/TBall_inflater.o
 .bss           0x200008f4        0x0 ./Tiny/TCandle_color_sensor.o
 .bss           0x200008f4        0x0 ./Tiny/THammer.o
 .bss           0x200008f4        0x0 ./Tiny/TPlier.o
 .bss           0x200008f4        0x0 ./QS/impl/QS_uart_stm32f4.o
 .bss           0x200008f4        0x0 ./QS/QS_CapteurCouleurCW.o
 .bss           0x200008f4       0xc4 ./QS/QS_DCMotor2.o
 .bss           0x200009b8        0x0 ./QS/QS_Step_motor.o
 .bss           0x200009b8       0x24 ./QS/QS_adc.o
 .bss           0x200009dc      0x6b0 ./QS/QS_ax12.o
 .bss           0x2000108c        0x0 ./QS/QS_buffer_fifo.o
 .bss           0x2000108c       0x6c ./QS/QS_buttons.o
 .bss           0x200010f8      0x190 ./QS/QS_can.o
 .bss           0x20001288        0x1 ./QS/QS_can_over_uart.o
 .bss           0x20001289        0x0 ./QS/QS_can_over_xbee.o
 .bss           0x20001289        0x0 ./QS/QS_configCheck.o
 .bss           0x20001289        0x0 ./QS/QS_external_it.o
 .bss           0x20001289        0x0 ./QS/QS_global_vars.o
 .bss           0x20001289        0x0 ./QS/QS_i2c.o
 .bss           0x20001289        0x0 ./QS/QS_outputlog.o
 .bss           0x20001289        0x1 ./QS/QS_ports.o
 .bss           0x2000128a        0x1 ./QS/QS_pwm.o
 .bss           0x2000128b        0x1 ./QS/QS_qei.o
 .bss           0x2000128c        0x0 ./QS/QS_rf.o
 .bss           0x2000128c        0x0 ./QS/QS_servo.o
 .bss           0x2000128c        0x0 ./QS/QS_spi.o
 .bss           0x2000128c        0x8 ./QS/QS_sys.o
                0x2000128c                __env
 .bss           0x20001294        0x1 ./QS/QS_timer.o
 .bss           0x20001295        0x0 ./QS/QS_trap_handler.o
 *fill*         0x20001295        0x3 00
 .bss           0x20001298       0x1c ./QS/QS_uart.o
 .bss           0x200012b4        0x0 ./QS/QS_watchdog.o
 .bss           0x200012b4        0x2 ./QS/QS_who_am_i.o
                0x200012b4                robot_id
                0x200012b5                found
 .bss           0x200012b6        0x0 ./QS/startup_stm32f40xx.o
 .bss           0x200012b6        0x0 ./Krusty/KActManager.o
 .bss           0x200012b6        0x4 ./Krusty/KBall_launcher.o
 .bss           0x200012ba        0xa ./Krusty/KBall_sorter.o
 .bss           0x200012c4        0x2 ./Krusty/KFruit.o
 *fill*         0x200012c6        0x2 00
 .bss           0x200012c8        0x4 ./Krusty/KLift.o
 .bss           0x200012cc        0x2 ./Krusty/KPlate.o
 .bss           0x200012ce        0x0 ./Krusty/template.o
 .bss           0x200012ce        0x0 ./Can_msg_processing.o
 .bss           0x200012ce        0x0 ./act_queue_utils.o
 .bss           0x200012ce        0x4 ./clock.o
 .bss           0x200012d2        0x2 ./main.o
 .bss           0x200012d4        0x0 ./maths_home.o
 .bss           0x200012d4      0xd68 ./queue.o
 .bss           0x2000203c        0x0 ../stm32f4xx\libstm32f4xx.a(misc.o)
 .bss           0x2000203c        0x0 ../stm32f4xx\libstm32f4xx.a(stm32f4xx_adc.o)
 .bss           0x2000203c        0x0 ../stm32f4xx\libstm32f4xx.a(stm32f4xx_can.o)
 .bss           0x2000203c        0x0 ../stm32f4xx\libstm32f4xx.a(stm32f4xx_dma.o)
 .bss           0x2000203c        0x0 ../stm32f4xx\libstm32f4xx.a(stm32f4xx_exti.o)
 .bss           0x2000203c        0x0 ../stm32f4xx\libstm32f4xx.a(stm32f4xx_flash.o)
 .bss           0x2000203c        0x0 ../stm32f4xx\libstm32f4xx.a(stm32f4xx_gpio.o)
 .bss           0x2000203c        0x0 ../stm32f4xx\libstm32f4xx.a(stm32f4xx_rcc.o)
 .bss           0x2000203c        0x0 ../stm32f4xx\libstm32f4xx.a(stm32f4xx_syscfg.o)
 .bss           0x2000203c        0x0 ../stm32f4xx\libstm32f4xx.a(stm32f4xx_tim.o)
 .bss           0x2000203c        0x0 ../stm32f4xx\libstm32f4xx.a(stm32f4xx_usart.o)
 .bss           0x2000203c        0x0 ../stm32f4xx\libstm32f4xx.a(system_stm32f4xx.o)
 .bss           0x2000203c        0x0 c:/program files (x86)/eclipse-arm-eseo/gcc-arm-none-eabi-4_7-2013q2-20130614-win32/gnu tools arm embedded/4.7 2013q2/bin/../lib/gcc/arm-none-eabi/4.7.4/armv7e-m\libgcc.a(_arm_addsubdf3.o)
 .bss           0x2000203c        0x0 c:/program files (x86)/eclipse-arm-eseo/gcc-arm-none-eabi-4_7-2013q2-20130614-win32/gnu tools arm embedded/4.7 2013q2/bin/../lib/gcc/arm-none-eabi/4.7.4/armv7e-m\libgcc.a(_arm_muldivdf3.o)
 .bss           0x2000203c        0x0 c:/program files (x86)/eclipse-arm-eseo/gcc-arm-none-eabi-4_7-2013q2-20130614-win32/gnu tools arm embedded/4.7 2013q2/bin/../lib/gcc/arm-none-eabi/4.7.4/armv7e-m\libgcc.a(_arm_fixdfsi.o)
 .bss           0x2000203c        0x0 c:/program files (x86)/eclipse-arm-eseo/gcc-arm-none-eabi-4_7-2013q2-20130614-win32/gnu tools arm embedded/4.7 2013q2/bin/../lib/gcc/arm-none-eabi/4.7.4/../../../../arm-none-eabi/lib/armv7e-m\libg.a(lib_a-errno.o)
 .bss           0x2000203c        0x0 c:/program files (x86)/eclipse-arm-eseo/gcc-arm-none-eabi-4_7-2013q2-20130614-win32/gnu tools arm embedded/4.7 2013q2/bin/../lib/gcc/arm-none-eabi/4.7.4/../../../../arm-none-eabi/lib/armv7e-m\libg.a(lib_a-impure.o)
 .bss           0x2000203c        0x0 c:/program files (x86)/eclipse-arm-eseo/gcc-arm-none-eabi-4_7-2013q2-20130614-win32/gnu tools arm embedded/4.7 2013q2/bin/../lib/gcc/arm-none-eabi/4.7.4/../../../../arm-none-eabi/lib/armv7e-m\libg.a(lib_a-printf.o)
 .bss           0x2000203c        0x0 c:/program files (x86)/eclipse-arm-eseo/gcc-arm-none-eabi-4_7-2013q2-20130614-win32/gnu tools arm embedded/4.7 2013q2/bin/../lib/gcc/arm-none-eabi/4.7.4/../../../../arm-none-eabi/lib/armv7e-m\libg.a(lib_a-setvbuf.o)
 .bss           0x2000203c        0x0 c:/program files (x86)/eclipse-arm-eseo/gcc-arm-none-eabi-4_7-2013q2-20130614-win32/gnu tools arm embedded/4.7 2013q2/bin/../lib/gcc/arm-none-eabi/4.7.4/../../../../arm-none-eabi/lib/armv7e-m\libg.a(lib_a-vfprintf.o)
 .bss           0x2000203c        0x0 c:/program files (x86)/eclipse-arm-eseo/gcc-arm-none-eabi-4_7-2013q2-20130614-win32/gnu tools arm embedded/4.7 2013q2/bin/../lib/gcc/arm-none-eabi/4.7.4/../../../../arm-none-eabi/lib/armv7e-m\libg.a(lib_a-vprintf.o)
 .bss           0x2000203c        0x0 c:/program files (x86)/eclipse-arm-eseo/gcc-arm-none-eabi-4_7-2013q2-20130614-win32/gnu tools arm embedded/4.7 2013q2/bin/../lib/gcc/arm-none-eabi/4.7.4/../../../../arm-none-eabi/lib/armv7e-m\libg.a(lib_a-wsetup.o)
 .bss           0x2000203c        0x0 c:/program files (x86)/eclipse-arm-eseo/gcc-arm-none-eabi-4_7-2013q2-20130614-win32/gnu tools arm embedded/4.7 2013q2/bin/../lib/gcc/arm-none-eabi/4.7.4/../../../../arm-none-eabi/lib/armv7e-m\libg.a(lib_a-dtoa.o)
 .bss           0x2000203c        0x0 c:/program files (x86)/eclipse-arm-eseo/gcc-arm-none-eabi-4_7-2013q2-20130614-win32/gnu tools arm embedded/4.7 2013q2/bin/../lib/gcc/arm-none-eabi/4.7.4/../../../../arm-none-eabi/lib/armv7e-m\libg.a(lib_a-fflush.o)
 .bss           0x2000203c        0x0 c:/program files (x86)/eclipse-arm-eseo/gcc-arm-none-eabi-4_7-2013q2-20130614-win32/gnu tools arm embedded/4.7 2013q2/bin/../lib/gcc/arm-none-eabi/4.7.4/../../../../arm-none-eabi/lib/armv7e-m\libg.a(lib_a-findfp.o)
 .bss           0x2000203c        0x0 c:/program files (x86)/eclipse-arm-eseo/gcc-arm-none-eabi-4_7-2013q2-20130614-win32/gnu tools arm embedded/4.7 2013q2/bin/../lib/gcc/arm-none-eabi/4.7.4/../../../../arm-none-eabi/lib/armv7e-m\libg.a(lib_a-freer.o)
 .bss           0x2000203c        0x0 c:/program files (x86)/eclipse-arm-eseo/gcc-arm-none-eabi-4_7-2013q2-20130614-win32/gnu tools arm embedded/4.7 2013q2/bin/../lib/gcc/arm-none-eabi/4.7.4/../../../../arm-none-eabi/lib/armv7e-m\libg.a(lib_a-fwalk.o)
 .bss           0x2000203c        0x0 c:/program files (x86)/eclipse-arm-eseo/gcc-arm-none-eabi-4_7-2013q2-20130614-win32/gnu tools arm embedded/4.7 2013q2/bin/../lib/gcc/arm-none-eabi/4.7.4/../../../../arm-none-eabi/lib/armv7e-m\libg.a(lib_a-locale.o)
 .bss           0x2000203c        0x0 c:/program files (x86)/eclipse-arm-eseo/gcc-arm-none-eabi-4_7-2013q2-20130614-win32/gnu tools arm embedded/4.7 2013q2/bin/../lib/gcc/arm-none-eabi/4.7.4/../../../../arm-none-eabi/lib/armv7e-m\libg.a(lib_a-makebuf.o)
 .bss           0x2000203c        0x0 c:/program files (x86)/eclipse-arm-eseo/gcc-arm-none-eabi-4_7-2013q2-20130614-win32/gnu tools arm embedded/4.7 2013q2/bin/../lib/gcc/arm-none-eabi/4.7.4/../../../../arm-none-eabi/lib/armv7e-m\libg.a(lib_a-malloc.o)
 .bss           0x2000203c        0x0 c:/program files (x86)/eclipse-arm-eseo/gcc-arm-none-eabi-4_7-2013q2-20130614-win32/gnu tools arm embedded/4.7 2013q2/bin/../lib/gcc/arm-none-eabi/4.7.4/../../../../arm-none-eabi/lib/armv7e-m\libg.a(lib_a-mallocr.o)
 .bss           0x2000203c        0x0 c:/program files (x86)/eclipse-arm-eseo/gcc-arm-none-eabi-4_7-2013q2-20130614-win32/gnu tools arm embedded/4.7 2013q2/bin/../lib/gcc/arm-none-eabi/4.7.4/../../../../arm-none-eabi/lib/armv7e-m\libg.a(lib_a-memchr.o)
 .bss           0x2000203c        0x0 c:/program files (x86)/eclipse-arm-eseo/gcc-arm-none-eabi-4_7-2013q2-20130614-win32/gnu tools arm embedded/4.7 2013q2/bin/../lib/gcc/arm-none-eabi/4.7.4/../../../../arm-none-eabi/lib/armv7e-m\libg.a(lib_a-memcpy.o)
 .bss           0x2000203c        0x0 c:/program files (x86)/eclipse-arm-eseo/gcc-arm-none-eabi-4_7-2013q2-20130614-win32/gnu tools arm embedded/4.7 2013q2/bin/../lib/gcc/arm-none-eabi/4.7.4/../../../../arm-none-eabi/lib/armv7e-m\libg.a(lib_a-memset.o)
 .bss           0x2000203c        0x0 c:/program files (x86)/eclipse-arm-eseo/gcc-arm-none-eabi-4_7-2013q2-20130614-win32/gnu tools arm embedded/4.7 2013q2/bin/../lib/gcc/arm-none-eabi/4.7.4/../../../../arm-none-eabi/lib/armv7e-m\libg.a(lib_a-mlock.o)
 .bss           0x2000203c        0x0 c:/program files (x86)/eclipse-arm-eseo/gcc-arm-none-eabi-4_7-2013q2-20130614-win32/gnu tools arm embedded/4.7 2013q2/bin/../lib/gcc/arm-none-eabi/4.7.4/../../../../arm-none-eabi/lib/armv7e-m\libg.a(lib_a-mprec.o)
 .bss           0x2000203c        0x0 c:/program files (x86)/eclipse-arm-eseo/gcc-arm-none-eabi-4_7-2013q2-20130614-win32/gnu tools arm embedded/4.7 2013q2/bin/../lib/gcc/arm-none-eabi/4.7.4/../../../../arm-none-eabi/lib/armv7e-m\libg.a(lib_a-s_fpclassify.o)
 .bss           0x2000203c        0x0 c:/program files (x86)/eclipse-arm-eseo/gcc-arm-none-eabi-4_7-2013q2-20130614-win32/gnu tools arm embedded/4.7 2013q2/bin/../lib/gcc/arm-none-eabi/4.7.4/../../../../arm-none-eabi/lib/armv7e-m\libg.a(lib_a-sbrkr.o)
 .bss           0x2000203c        0x0 c:/program files (x86)/eclipse-arm-eseo/gcc-arm-none-eabi-4_7-2013q2-20130614-win32/gnu tools arm embedded/4.7 2013q2/bin/../lib/gcc/arm-none-eabi/4.7.4/../../../../arm-none-eabi/lib/armv7e-m\libg.a(lib_a-stdio.o)
 .bss           0x2000203c        0x0 c:/program files (x86)/eclipse-arm-eseo/gcc-arm-none-eabi-4_7-2013q2-20130614-win32/gnu tools arm embedded/4.7 2013q2/bin/../lib/gcc/arm-none-eabi/4.7.4/../../../../arm-none-eabi/lib/armv7e-m\libg.a(lib_a-strcmp.o)
 .bss           0x2000203c        0x0 c:/program files (x86)/eclipse-arm-eseo/gcc-arm-none-eabi-4_7-2013q2-20130614-win32/gnu tools arm embedded/4.7 2013q2/bin/../lib/gcc/arm-none-eabi/4.7.4/../../../../arm-none-eabi/lib/armv7e-m\libg.a(lib_a-strlen.o)
 .bss           0x2000203c        0x0 c:/program files (x86)/eclipse-arm-eseo/gcc-arm-none-eabi-4_7-2013q2-20130614-win32/gnu tools arm embedded/4.7 2013q2/bin/../lib/gcc/arm-none-eabi/4.7.4/../../../../arm-none-eabi/lib/armv7e-m\libg.a(lib_a-vfiprintf.o)
 .bss           0x2000203c        0x0 c:/program files (x86)/eclipse-arm-eseo/gcc-arm-none-eabi-4_7-2013q2-20130614-win32/gnu tools arm embedded/4.7 2013q2/bin/../lib/gcc/arm-none-eabi/4.7.4/../../../../arm-none-eabi/lib/armv7e-m\libg.a(lib_a-writer.o)
 .bss           0x2000203c        0x0 c:/program files (x86)/eclipse-arm-eseo/gcc-arm-none-eabi-4_7-2013q2-20130614-win32/gnu tools arm embedded/4.7 2013q2/bin/../lib/gcc/arm-none-eabi/4.7.4/../../../../arm-none-eabi/lib/armv7e-m\libg.a(lib_a-callocr.o)
 .bss           0x2000203c        0x0 c:/program files (x86)/eclipse-arm-eseo/gcc-arm-none-eabi-4_7-2013q2-20130614-win32/gnu tools arm embedded/4.7 2013q2/bin/../lib/gcc/arm-none-eabi/4.7.4/../../../../arm-none-eabi/lib/armv7e-m\libg.a(lib_a-closer.o)
 .bss           0x2000203c        0x0 c:/program files (x86)/eclipse-arm-eseo/gcc-arm-none-eabi-4_7-2013q2-20130614-win32/gnu tools arm embedded/4.7 2013q2/bin/../lib/gcc/arm-none-eabi/4.7.4/../../../../arm-none-eabi/lib/armv7e-m\libg.a(lib_a-fclose.o)
 .bss           0x2000203c        0x0 c:/program files (x86)/eclipse-arm-eseo/gcc-arm-none-eabi-4_7-2013q2-20130614-win32/gnu tools arm embedded/4.7 2013q2/bin/../lib/gcc/arm-none-eabi/4.7.4/../../../../arm-none-eabi/lib/armv7e-m\libg.a(lib_a-fputwc.o)
 .bss           0x2000203c        0x0 c:/program files (x86)/eclipse-arm-eseo/gcc-arm-none-eabi-4_7-2013q2-20130614-win32/gnu tools arm embedded/4.7 2013q2/bin/../lib/gcc/arm-none-eabi/4.7.4/../../../../arm-none-eabi/lib/armv7e-m\libg.a(lib_a-fstatr.o)
 .bss           0x2000203c        0x0 c:/program files (x86)/eclipse-arm-eseo/gcc-arm-none-eabi-4_7-2013q2-20130614-win32/gnu tools arm embedded/4.7 2013q2/bin/../lib/gcc/arm-none-eabi/4.7.4/../../../../arm-none-eabi/lib/armv7e-m\libg.a(lib_a-fvwrite.o)
 .bss           0x2000203c        0x0 c:/program files (x86)/eclipse-arm-eseo/gcc-arm-none-eabi-4_7-2013q2-20130614-win32/gnu tools arm embedded/4.7 2013q2/bin/../lib/gcc/arm-none-eabi/4.7.4/../../../../arm-none-eabi/lib/armv7e-m\libg.a(lib_a-isattyr.o)
 .bss           0x2000203c        0x0 c:/program files (x86)/eclipse-arm-eseo/gcc-arm-none-eabi-4_7-2013q2-20130614-win32/gnu tools arm embedded/4.7 2013q2/bin/../lib/gcc/arm-none-eabi/4.7.4/../../../../arm-none-eabi/lib/armv7e-m\libg.a(lib_a-lseekr.o)
 .bss           0x2000203c        0x0 c:/program files (x86)/eclipse-arm-eseo/gcc-arm-none-eabi-4_7-2013q2-20130614-win32/gnu tools arm embedded/4.7 2013q2/bin/../lib/gcc/arm-none-eabi/4.7.4/../../../../arm-none-eabi/lib/armv7e-m\libg.a(lib_a-memmove.o)
 .bss           0x2000203c        0x0 c:/program files (x86)/eclipse-arm-eseo/gcc-arm-none-eabi-4_7-2013q2-20130614-win32/gnu tools arm embedded/4.7 2013q2/bin/../lib/gcc/arm-none-eabi/4.7.4/../../../../arm-none-eabi/lib/armv7e-m\libg.a(lib_a-readr.o)
 .bss           0x2000203c        0x0 c:/program files (x86)/eclipse-arm-eseo/gcc-arm-none-eabi-4_7-2013q2-20130614-win32/gnu tools arm embedded/4.7 2013q2/bin/../lib/gcc/arm-none-eabi/4.7.4/../../../../arm-none-eabi/lib/armv7e-m\libg.a(lib_a-reallocr.o)
 .bss           0x2000203c        0x0 c:/program files (x86)/eclipse-arm-eseo/gcc-arm-none-eabi-4_7-2013q2-20130614-win32/gnu tools arm embedded/4.7 2013q2/bin/../lib/gcc/arm-none-eabi/4.7.4/../../../../arm-none-eabi/lib/armv7e-m\libg.a(lib_a-reent.o)
 .bss           0x2000203c        0x0 c:/program files (x86)/eclipse-arm-eseo/gcc-arm-none-eabi-4_7-2013q2-20130614-win32/gnu tools arm embedded/4.7 2013q2/bin/../lib/gcc/arm-none-eabi/4.7.4/../../../../arm-none-eabi/lib/armv7e-m\libg.a(lib_a-wbuf.o)
 .bss           0x2000203c        0x0 c:/program files (x86)/eclipse-arm-eseo/gcc-arm-none-eabi-4_7-2013q2-20130614-win32/gnu tools arm embedded/4.7 2013q2/bin/../lib/gcc/arm-none-eabi/4.7.4/../../../../arm-none-eabi/lib/armv7e-m\libg.a(lib_a-wcrtomb.o)
 .bss           0x2000203c        0x0 c:/program files (x86)/eclipse-arm-eseo/gcc-arm-none-eabi-4_7-2013q2-20130614-win32/gnu tools arm embedded/4.7 2013q2/bin/../lib/gcc/arm-none-eabi/4.7.4/../../../../arm-none-eabi/lib/armv7e-m\libg.a(lib_a-wctomb_r.o)
 .bss           0x2000203c        0x0 c:/program files (x86)/eclipse-arm-eseo/gcc-arm-none-eabi-4_7-2013q2-20130614-win32/gnu tools arm embedded/4.7 2013q2/bin/../lib/gcc/arm-none-eabi/4.7.4/armv7e-m\libgcc.a(_arm_cmpdf2.o)
 .bss           0x2000203c        0x0 c:/program files (x86)/eclipse-arm-eseo/gcc-arm-none-eabi-4_7-2013q2-20130614-win32/gnu tools arm embedded/4.7 2013q2/bin/../lib/gcc/arm-none-eabi/4.7.4/armv7e-m\libgcc.a(_aeabi_uldivmod.o)
 .bss           0x2000203c        0x0 c:/program files (x86)/eclipse-arm-eseo/gcc-arm-none-eabi-4_7-2013q2-20130614-win32/gnu tools arm embedded/4.7 2013q2/bin/../lib/gcc/arm-none-eabi/4.7.4/armv7e-m\libgcc.a(bpabi.o)
 .bss           0x2000203c        0x0 c:/program files (x86)/eclipse-arm-eseo/gcc-arm-none-eabi-4_7-2013q2-20130614-win32/gnu tools arm embedded/4.7 2013q2/bin/../lib/gcc/arm-none-eabi/4.7.4/armv7e-m\libgcc.a(_dvmd_tls.o)
 .bss           0x2000203c        0x0 c:/program files (x86)/eclipse-arm-eseo/gcc-arm-none-eabi-4_7-2013q2-20130614-win32/gnu tools arm embedded/4.7 2013q2/bin/../lib/gcc/arm-none-eabi/4.7.4/armv7e-m\libgcc.a(_divdi3.o)
 .bss           0x2000203c        0x0 c:/program files (x86)/eclipse-arm-eseo/gcc-arm-none-eabi-4_7-2013q2-20130614-win32/gnu tools arm embedded/4.7 2013q2/bin/../lib/gcc/arm-none-eabi/4.7.4/armv7e-m\libgcc.a(_udivdi3.o)
 .bss           0x2000203c        0x0 c:/program files (x86)/eclipse-arm-eseo/gcc-arm-none-eabi-4_7-2013q2-20130614-win32/gnu tools arm embedded/4.7 2013q2/bin/../lib/gcc/arm-none-eabi/4.7.4/../../../../arm-none-eabi/lib/armv7e-m\libm.a(lib_a-s_atan.o)
 .bss           0x2000203c        0x0 c:/program files (x86)/eclipse-arm-eseo/gcc-arm-none-eabi-4_7-2013q2-20130614-win32/gnu tools arm embedded/4.7 2013q2/bin/../lib/gcc/arm-none-eabi/4.7.4/../../../../arm-none-eabi/lib/armv7e-m\libm.a(lib_a-s_cos.o)
 .bss           0x2000203c        0x0 c:/program files (x86)/eclipse-arm-eseo/gcc-arm-none-eabi-4_7-2013q2-20130614-win32/gnu tools arm embedded/4.7 2013q2/bin/../lib/gcc/arm-none-eabi/4.7.4/../../../../arm-none-eabi/lib/armv7e-m\libm.a(lib_a-s_fabs.o)
 .bss           0x2000203c        0x0 c:/program files (x86)/eclipse-arm-eseo/gcc-arm-none-eabi-4_7-2013q2-20130614-win32/gnu tools arm embedded/4.7 2013q2/bin/../lib/gcc/arm-none-eabi/4.7.4/../../../../arm-none-eabi/lib/armv7e-m\libm.a(lib_a-s_sin.o)
 .bss           0x2000203c        0x0 c:/program files (x86)/eclipse-arm-eseo/gcc-arm-none-eabi-4_7-2013q2-20130614-win32/gnu tools arm embedded/4.7 2013q2/bin/../lib/gcc/arm-none-eabi/4.7.4/../../../../arm-none-eabi/lib/armv7e-m\libm.a(lib_a-e_rem_pio2.o)
 .bss           0x2000203c        0x0 c:/program files (x86)/eclipse-arm-eseo/gcc-arm-none-eabi-4_7-2013q2-20130614-win32/gnu tools arm embedded/4.7 2013q2/bin/../lib/gcc/arm-none-eabi/4.7.4/../../../../arm-none-eabi/lib/armv7e-m\libm.a(lib_a-k_cos.o)
 .bss           0x2000203c        0x0 c:/program files (x86)/eclipse-arm-eseo/gcc-arm-none-eabi-4_7-2013q2-20130614-win32/gnu tools arm embedded/4.7 2013q2/bin/../lib/gcc/arm-none-eabi/4.7.4/../../../../arm-none-eabi/lib/armv7e-m\libm.a(lib_a-k_rem_pio2.o)
 .bss           0x2000203c        0x0 c:/program files (x86)/eclipse-arm-eseo/gcc-arm-none-eabi-4_7-2013q2-20130614-win32/gnu tools arm embedded/4.7 2013q2/bin/../lib/gcc/arm-none-eabi/4.7.4/../../../../arm-none-eabi/lib/armv7e-m\libm.a(lib_a-k_sin.o)
 .bss           0x2000203c        0x0 c:/program files (x86)/eclipse-arm-eseo/gcc-arm-none-eabi-4_7-2013q2-20130614-win32/gnu tools arm embedded/4.7 2013q2/bin/../lib/gcc/arm-none-eabi/4.7.4/../../../../arm-none-eabi/lib/armv7e-m\libm.a(lib_a-s_floor.o)
 .bss           0x2000203c        0x0 c:/program files (x86)/eclipse-arm-eseo/gcc-arm-none-eabi-4_7-2013q2-20130614-win32/gnu tools arm embedded/4.7 2013q2/bin/../lib/gcc/arm-none-eabi/4.7.4/../../../../arm-none-eabi/lib/armv7e-m\libm.a(lib_a-s_scalbn.o)
 .bss           0x2000203c        0x0 c:/program files (x86)/eclipse-arm-eseo/gcc-arm-none-eabi-4_7-2013q2-20130614-win32/gnu tools arm embedded/4.7 2013q2/bin/../lib/gcc/arm-none-eabi/4.7.4/../../../../arm-none-eabi/lib/armv7e-m\libm.a(lib_a-s_copysign.o)
 *(COMMON)
 COMMON         0x2000203c       0x40 ./QS/QS_external_it.o
                0x2000203c                callbacks
 COMMON         0x2000207c        0x1 ./QS/QS_global_vars.o
                0x2000207c                global
 *fill*         0x2000207d        0x3 00
 COMMON         0x20002080        0x4 c:/program files (x86)/eclipse-arm-eseo/gcc-arm-none-eabi-4_7-2013q2-20130614-win32/gnu tools arm embedded/4.7 2013q2/bin/../lib/gcc/arm-none-eabi/4.7.4/../../../../arm-none-eabi/lib/armv7e-m\libg.a(lib_a-reent.o)
                0x20002080                errno
                0x20002084                . = ALIGN (0x4)
                0x20002084                _ebss = .

.bss._PathLocale
                0x20002084        0x4 load address 0x0801ab5c
 .bss._PathLocale
                0x20002084        0x4 c:/program files (x86)/eclipse-arm-eseo/gcc-arm-none-eabi-4_7-2013q2-20130614-win32/gnu tools arm embedded/4.7 2013q2/bin/../lib/gcc/arm-none-eabi/4.7.4/../../../../arm-none-eabi/lib/armv7e-m\libg.a(lib_a-locale.o)
                0x20002084                _PathLocale

.bss.__nlocale_changed
                0x20002088        0x4 load address 0x0801ab60
 .bss.__nlocale_changed
                0x20002088        0x4 c:/program files (x86)/eclipse-arm-eseo/gcc-arm-none-eabi-4_7-2013q2-20130614-win32/gnu tools arm embedded/4.7 2013q2/bin/../lib/gcc/arm-none-eabi/4.7.4/../../../../arm-none-eabi/lib/armv7e-m\libg.a(lib_a-locale.o)
                0x20002088                __nlocale_changed

.bss.__mlocale_changed
                0x2000208c        0x4 load address 0x0801ab64
 .bss.__mlocale_changed
                0x2000208c        0x4 c:/program files (x86)/eclipse-arm-eseo/gcc-arm-none-eabi-4_7-2013q2-20130614-win32/gnu tools arm embedded/4.7 2013q2/bin/../lib/gcc/arm-none-eabi/4.7.4/../../../../arm-none-eabi/lib/armv7e-m\libg.a(lib_a-locale.o)
                0x2000208c                __mlocale_changed

.bss.__malloc_max_total_mem
                0x20002090        0x4 load address 0x0801ab68
 .bss.__malloc_max_total_mem
                0x20002090        0x4 c:/program files (x86)/eclipse-arm-eseo/gcc-arm-none-eabi-4_7-2013q2-20130614-win32/gnu tools arm embedded/4.7 2013q2/bin/../lib/gcc/arm-none-eabi/4.7.4/../../../../arm-none-eabi/lib/armv7e-m\libg.a(lib_a-mallocr.o)
                0x20002090                __malloc_max_total_mem

.bss.__malloc_max_sbrked_mem
                0x20002094        0x4 load address 0x0801ab6c
 .bss.__malloc_max_sbrked_mem
                0x20002094        0x4 c:/program files (x86)/eclipse-arm-eseo/gcc-arm-none-eabi-4_7-2013q2-20130614-win32/gnu tools arm embedded/4.7 2013q2/bin/../lib/gcc/arm-none-eabi/4.7.4/../../../../arm-none-eabi/lib/armv7e-m\libg.a(lib_a-mallocr.o)
                0x20002094                __malloc_max_sbrked_mem

.bss.__malloc_top_pad
                0x20002098        0x4 load address 0x0801ab70
 .bss.__malloc_top_pad
                0x20002098        0x4 c:/program files (x86)/eclipse-arm-eseo/gcc-arm-none-eabi-4_7-2013q2-20130614-win32/gnu tools arm embedded/4.7 2013q2/bin/../lib/gcc/arm-none-eabi/4.7.4/../../../../arm-none-eabi/lib/armv7e-m\libg.a(lib_a-mallocr.o)
                0x20002098                __malloc_top_pad

.bss.__malloc_current_mallinfo
                0x2000209c       0x28 load address 0x0801ab74
 .bss.__malloc_current_mallinfo
                0x2000209c       0x28 c:/program files (x86)/eclipse-arm-eseo/gcc-arm-none-eabi-4_7-2013q2-20130614-win32/gnu tools arm embedded/4.7 2013q2/bin/../lib/gcc/arm-none-eabi/4.7.4/../../../../arm-none-eabi/lib/armv7e-m\libg.a(lib_a-mallocr.o)
                0x2000209c                __malloc_current_mallinfo

.noinit         0x200020c4        0x0
                0x200020c4                . = ALIGN (0x4)
                0x200020c4                _snoinit = .
 *(.noinit)
 *(COMMON)
                0x200020c4                . = ALIGN (0x4)
                0x200020c4                _enoinit = .
                0x200020c4                PROVIDE (end, _enoinit)
                0x200020c4                PROVIDE (_end, _enoinit)

._usrstack      0x200020c4      0x100 load address 0x0801ab9c
                0x200020c4                . = ALIGN (0x4)
                0x200020c4                _susrstack = .
                0x200021c4                . = (. + _Minimum_Stack_Size)
 *fill*         0x200020c4      0x100 00
                0x200021c4                . = ALIGN (0x4)
                0x200021c4                _eusrstack = .

.b1text
 *(.b1text)
 *(.b1rodata)
 *(.b1rodata*)

.eb0text
 *(.eb0text)
 *(.eb0rodata)
 *(.eb0rodata*)

.eb1text
 *(.eb1text)
 *(.eb1rodata)
 *(.eb1rodata*)

.eb2text
 *(.eb2text)
 *(.eb2rodata)
 *(.eb2rodata*)

.eb3text
 *(.eb3text)
 *(.eb3rodata)
 *(.eb3rodata*)

DISCARD         0x200020c4      0x430
 libc.a(*)
 libm.a(*)
 .ARM.attributes
                0x200020c4       0x2e c:/program files (x86)/eclipse-arm-eseo/gcc-arm-none-eabi-4_7-2013q2-20130614-win32/gnu tools arm embedded/4.7 2013q2/bin/../lib/gcc/arm-none-eabi/4.7.4/../../../../arm-none-eabi/lib/armv7e-m\libm.a(lib_a-e_rem_pio2.o)
 *fill*         0x200020f2        0x2 00
 .debug_frame   0x200020f4       0x38 c:/program files (x86)/eclipse-arm-eseo/gcc-arm-none-eabi-4_7-2013q2-20130614-win32/gnu tools arm embedded/4.7 2013q2/bin/../lib/gcc/arm-none-eabi/4.7.4/../../../../arm-none-eabi/lib/armv7e-m\libm.a(lib_a-e_rem_pio2.o)
 .ARM.attributes
                0x2000212c       0x2e c:/program files (x86)/eclipse-arm-eseo/gcc-arm-none-eabi-4_7-2013q2-20130614-win32/gnu tools arm embedded/4.7 2013q2/bin/../lib/gcc/arm-none-eabi/4.7.4/../../../../arm-none-eabi/lib/armv7e-m\libm.a(lib_a-k_cos.o)
 *fill*         0x2000215a        0x2 00
 .debug_frame   0x2000215c       0x38 c:/program files (x86)/eclipse-arm-eseo/gcc-arm-none-eabi-4_7-2013q2-20130614-win32/gnu tools arm embedded/4.7 2013q2/bin/../lib/gcc/arm-none-eabi/4.7.4/../../../../arm-none-eabi/lib/armv7e-m\libm.a(lib_a-k_cos.o)
 .ARM.attributes
                0x20002194       0x2e c:/program files (x86)/eclipse-arm-eseo/gcc-arm-none-eabi-4_7-2013q2-20130614-win32/gnu tools arm embedded/4.7 2013q2/bin/../lib/gcc/arm-none-eabi/4.7.4/../../../../arm-none-eabi/lib/armv7e-m\libm.a(lib_a-k_rem_pio2.o)
 *fill*         0x200021c2        0x2 00
 .debug_frame   0x200021c4       0x3c c:/program files (x86)/eclipse-arm-eseo/gcc-arm-none-eabi-4_7-2013q2-20130614-win32/gnu tools arm embedded/4.7 2013q2/bin/../lib/gcc/arm-none-eabi/4.7.4/../../../../arm-none-eabi/lib/armv7e-m\libm.a(lib_a-k_rem_pio2.o)
 .ARM.attributes
                0x20002200       0x2e c:/program files (x86)/eclipse-arm-eseo/gcc-arm-none-eabi-4_7-2013q2-20130614-win32/gnu tools arm embedded/4.7 2013q2/bin/../lib/gcc/arm-none-eabi/4.7.4/../../../../arm-none-eabi/lib/armv7e-m\libm.a(lib_a-k_sin.o)
 *fill*         0x2000222e        0x2 00
 .debug_frame   0x20002230       0x38 c:/program files (x86)/eclipse-arm-eseo/gcc-arm-none-eabi-4_7-2013q2-20130614-win32/gnu tools arm embedded/4.7 2013q2/bin/../lib/gcc/arm-none-eabi/4.7.4/../../../../arm-none-eabi/lib/armv7e-m\libm.a(lib_a-k_sin.o)
 .ARM.attributes
                0x20002268       0x2e c:/program files (x86)/eclipse-arm-eseo/gcc-arm-none-eabi-4_7-2013q2-20130614-win32/gnu tools arm embedded/4.7 2013q2/bin/../lib/gcc/arm-none-eabi/4.7.4/../../../../arm-none-eabi/lib/armv7e-m\libm.a(lib_a-s_atan.o)
 *fill*         0x20002296        0x2 00
 .debug_frame   0x20002298       0x38 c:/program files (x86)/eclipse-arm-eseo/gcc-arm-none-eabi-4_7-2013q2-20130614-win32/gnu tools arm embedded/4.7 2013q2/bin/../lib/gcc/arm-none-eabi/4.7.4/../../../../arm-none-eabi/lib/armv7e-m\libm.a(lib_a-s_atan.o)
 .ARM.attributes
                0x200022d0       0x2e c:/program files (x86)/eclipse-arm-eseo/gcc-arm-none-eabi-4_7-2013q2-20130614-win32/gnu tools arm embedded/4.7 2013q2/bin/../lib/gcc/arm-none-eabi/4.7.4/../../../../arm-none-eabi/lib/armv7e-m\libm.a(lib_a-s_copysign.o)
 *fill*         0x200022fe        0x2 00
 .debug_frame   0x20002300       0x28 c:/program files (x86)/eclipse-arm-eseo/gcc-arm-none-eabi-4_7-2013q2-20130614-win32/gnu tools arm embedded/4.7 2013q2/bin/../lib/gcc/arm-none-eabi/4.7.4/../../../../arm-none-eabi/lib/armv7e-m\libm.a(lib_a-s_copysign.o)
 .ARM.attributes
                0x20002328       0x2e c:/program files (x86)/eclipse-arm-eseo/gcc-arm-none-eabi-4_7-2013q2-20130614-win32/gnu tools arm embedded/4.7 2013q2/bin/../lib/gcc/arm-none-eabi/4.7.4/../../../../arm-none-eabi/lib/armv7e-m\libm.a(lib_a-s_cos.o)
 *fill*         0x20002356        0x2 00
 .debug_frame   0x20002358       0x2c c:/program files (x86)/eclipse-arm-eseo/gcc-arm-none-eabi-4_7-2013q2-20130614-win32/gnu tools arm embedded/4.7 2013q2/bin/../lib/gcc/arm-none-eabi/4.7.4/../../../../arm-none-eabi/lib/armv7e-m\libm.a(lib_a-s_cos.o)
 .ARM.attributes
                0x20002384       0x2e c:/program files (x86)/eclipse-arm-eseo/gcc-arm-none-eabi-4_7-2013q2-20130614-win32/gnu tools arm embedded/4.7 2013q2/bin/../lib/gcc/arm-none-eabi/4.7.4/../../../../arm-none-eabi/lib/armv7e-m\libm.a(lib_a-s_fabs.o)
 *fill*         0x200023b2        0x2 00
 .debug_frame   0x200023b4       0x20 c:/program files (x86)/eclipse-arm-eseo/gcc-arm-none-eabi-4_7-2013q2-20130614-win32/gnu tools arm embedded/4.7 2013q2/bin/../lib/gcc/arm-none-eabi/4.7.4/../../../../arm-none-eabi/lib/armv7e-m\libm.a(lib_a-s_fabs.o)
 .ARM.attributes
                0x200023d4       0x2e c:/program files (x86)/eclipse-arm-eseo/gcc-arm-none-eabi-4_7-2013q2-20130614-win32/gnu tools arm embedded/4.7 2013q2/bin/../lib/gcc/arm-none-eabi/4.7.4/../../../../arm-none-eabi/lib/armv7e-m\libm.a(lib_a-s_floor.o)
 *fill*         0x20002402        0x2 00
 .debug_frame   0x20002404       0x34 c:/program files (x86)/eclipse-arm-eseo/gcc-arm-none-eabi-4_7-2013q2-20130614-win32/gnu tools arm embedded/4.7 2013q2/bin/../lib/gcc/arm-none-eabi/4.7.4/../../../../arm-none-eabi/lib/armv7e-m\libm.a(lib_a-s_floor.o)
 .ARM.attributes
                0x20002438       0x2e c:/program files (x86)/eclipse-arm-eseo/gcc-arm-none-eabi-4_7-2013q2-20130614-win32/gnu tools arm embedded/4.7 2013q2/bin/../lib/gcc/arm-none-eabi/4.7.4/../../../../arm-none-eabi/lib/armv7e-m\libm.a(lib_a-s_scalbn.o)
 *fill*         0x20002466        0x2 00
 .debug_frame   0x20002468       0x30 c:/program files (x86)/eclipse-arm-eseo/gcc-arm-none-eabi-4_7-2013q2-20130614-win32/gnu tools arm embedded/4.7 2013q2/bin/../lib/gcc/arm-none-eabi/4.7.4/../../../../arm-none-eabi/lib/armv7e-m\libm.a(lib_a-s_scalbn.o)
 .ARM.attributes
                0x20002498       0x2e c:/program files (x86)/eclipse-arm-eseo/gcc-arm-none-eabi-4_7-2013q2-20130614-win32/gnu tools arm embedded/4.7 2013q2/bin/../lib/gcc/arm-none-eabi/4.7.4/../../../../arm-none-eabi/lib/armv7e-m\libm.a(lib_a-s_sin.o)
 *fill*         0x200024c6        0x2 00
 .debug_frame   0x200024c8       0x2c c:/program files (x86)/eclipse-arm-eseo/gcc-arm-none-eabi-4_7-2013q2-20130614-win32/gnu tools arm embedded/4.7 2013q2/bin/../lib/gcc/arm-none-eabi/4.7.4/../../../../arm-none-eabi/lib/armv7e-m\libm.a(lib_a-s_sin.o)
 libgcc.a(*)

.stab
 *(.stab)

.stabstr
 *(.stabstr)

.stab.excl
 *(.stab.excl)

.stab.exclstr
 *(.stab.exclstr)

.stab.index
 *(.stab.index)

.stab.indexstr
 *(.stab.indexstr)

.comment        0x00000000       0xe0
 *(.comment)
 .comment       0x00000000       0x70 ./Tiny/TActManager.o
                                 0x71 (size before relaxing)
 .comment       0x00000000       0x71 ./Tiny/TBall_inflater.o
 .comment       0x00000000       0x71 ./Tiny/TCandle_color_sensor.o
 .comment       0x00000000       0x71 ./Tiny/THammer.o
 .comment       0x00000000       0x71 ./Tiny/TPlier.o
 .comment       0x00000000       0x71 ./QS/impl/QS_uart_stm32f4.o
 .comment       0x00000000       0x71 ./QS/QS_CapteurCouleurCW.o
 .comment       0x00000000       0x71 ./QS/QS_DCMotor2.o
 .comment       0x00000000       0x71 ./QS/QS_Step_motor.o
 .comment       0x00000000       0x71 ./QS/QS_adc.o
 .comment       0x00000000       0x71 ./QS/QS_ax12.o
 .comment       0x00000000       0x71 ./QS/QS_buffer_fifo.o
 .comment       0x00000000       0x71 ./QS/QS_buttons.o
 .comment       0x00000000       0x71 ./QS/QS_can.o
 .comment       0x00000000       0x71 ./QS/QS_can_over_uart.o
 .comment       0x00000000       0x71 ./QS/QS_can_over_xbee.o
 .comment       0x00000000       0x71 ./QS/QS_configCheck.o
 .comment       0x00000000       0x71 ./QS/QS_external_it.o
 .comment       0x00000000       0x71 ./QS/QS_global_vars.o
 .comment       0x00000000       0x71 ./QS/QS_i2c.o
 .comment       0x00000000       0x71 ./QS/QS_outputlog.o
 .comment       0x00000000       0x71 ./QS/QS_ports.o
 .comment       0x00000000       0x71 ./QS/QS_pwm.o
 .comment       0x00000000       0x71 ./QS/QS_qei.o
 .comment       0x00000000       0x71 ./QS/QS_rf.o
 .comment       0x00000000       0x71 ./QS/QS_servo.o
 .comment       0x00000000       0x71 ./QS/QS_spi.o
 .comment       0x00000000       0x71 ./QS/QS_sys.o
 .comment       0x00000000       0x71 ./QS/QS_timer.o
 .comment       0x00000000       0x71 ./QS/QS_trap_handler.o
 .comment       0x00000000       0x71 ./QS/QS_uart.o
 .comment       0x00000000       0x71 ./QS/QS_watchdog.o
 .comment       0x00000000       0x71 ./QS/QS_who_am_i.o
 .comment       0x00000000       0x71 ./Krusty/KActManager.o
 .comment       0x00000000       0x71 ./Krusty/KBall_launcher.o
 .comment       0x00000000       0x71 ./Krusty/KBall_sorter.o
 .comment       0x00000000       0x71 ./Krusty/KFruit.o
 .comment       0x00000000       0x71 ./Krusty/KLift.o
 .comment       0x00000000       0x71 ./Krusty/KPlate.o
 .comment       0x00000000       0x71 ./Krusty/template.o
 .comment       0x00000000       0x71 ./Can_msg_processing.o
 .comment       0x00000000       0x71 ./act_queue_utils.o
 .comment       0x00000000       0x71 ./clock.o
 .comment       0x00000000       0x71 ./main.o
 .comment       0x00000000       0x71 ./maths_home.o
 .comment       0x00000000       0x71 ./queue.o
 .comment       0x00000070       0x70 ../stm32f4xx\libstm32f4xx.a(misc.o)
                                 0x71 (size before relaxing)
 .comment       0x00000000       0x71 ../stm32f4xx\libstm32f4xx.a(stm32f4xx_adc.o)
 .comment       0x00000000       0x71 ../stm32f4xx\libstm32f4xx.a(stm32f4xx_can.o)
 .comment       0x00000000       0x71 ../stm32f4xx\libstm32f4xx.a(stm32f4xx_dma.o)
 .comment       0x00000000       0x71 ../stm32f4xx\libstm32f4xx.a(stm32f4xx_exti.o)
 .comment       0x00000000       0x71 ../stm32f4xx\libstm32f4xx.a(stm32f4xx_flash.o)
 .comment       0x00000000       0x71 ../stm32f4xx\libstm32f4xx.a(stm32f4xx_gpio.o)
 .comment       0x00000000       0x71 ../stm32f4xx\libstm32f4xx.a(stm32f4xx_rcc.o)
 .comment       0x00000000       0x71 ../stm32f4xx\libstm32f4xx.a(stm32f4xx_syscfg.o)
 .comment       0x00000000       0x71 ../stm32f4xx\libstm32f4xx.a(stm32f4xx_tim.o)
 .comment       0x00000000       0x71 ../stm32f4xx\libstm32f4xx.a(stm32f4xx_usart.o)
 .comment       0x00000000       0x71 ../stm32f4xx\libstm32f4xx.a(system_stm32f4xx.o)

.ARM.attributes
                0x00000000       0x31
 .ARM.attributes
                0x00000000       0x33 ./Tiny/TActManager.o
 .ARM.attributes
                0x00000033       0x33 ./Tiny/TBall_inflater.o
 .ARM.attributes
                0x00000066       0x33 ./Tiny/TCandle_color_sensor.o
 .ARM.attributes
                0x00000099       0x33 ./Tiny/THammer.o
 .ARM.attributes
                0x000000cc       0x33 ./Tiny/TPlier.o
 .ARM.attributes
                0x000000ff       0x33 ./QS/impl/QS_uart_stm32f4.o
 .ARM.attributes
                0x00000132       0x33 ./QS/QS_CapteurCouleurCW.o
 .ARM.attributes
                0x00000165       0x33 ./QS/QS_DCMotor2.o
 .ARM.attributes
                0x00000198       0x33 ./QS/QS_Step_motor.o
 .ARM.attributes
                0x000001cb       0x33 ./QS/QS_adc.o
 .ARM.attributes
                0x000001fe       0x33 ./QS/QS_ax12.o
 .ARM.attributes
                0x00000231       0x33 ./QS/QS_buffer_fifo.o
 .ARM.attributes
                0x00000264       0x33 ./QS/QS_buttons.o
 .ARM.attributes
                0x00000297       0x33 ./QS/QS_can.o
 .ARM.attributes
                0x000002ca       0x33 ./QS/QS_can_over_uart.o
 .ARM.attributes
                0x000002fd       0x33 ./QS/QS_can_over_xbee.o
 .ARM.attributes
                0x00000330       0x33 ./QS/QS_configCheck.o
 .ARM.attributes
                0x00000363       0x33 ./QS/QS_external_it.o
 .ARM.attributes
                0x00000396       0x33 ./QS/QS_global_vars.o
 .ARM.attributes
                0x000003c9       0x33 ./QS/QS_i2c.o
 .ARM.attributes
                0x000003fc       0x33 ./QS/QS_outputlog.o
 .ARM.attributes
                0x0000042f       0x33 ./QS/QS_ports.o
 .ARM.attributes
                0x00000462       0x33 ./QS/QS_pwm.o
 .ARM.attributes
                0x00000495       0x33 ./QS/QS_qei.o
 .ARM.attributes
                0x000004c8       0x33 ./QS/QS_rf.o
 .ARM.attributes
                0x000004fb       0x33 ./QS/QS_servo.o
 .ARM.attributes
                0x0000052e       0x33 ./QS/QS_spi.o
 .ARM.attributes
                0x00000561       0x33 ./QS/QS_sys.o
 .ARM.attributes
                0x00000594       0x33 ./QS/QS_timer.o
 .ARM.attributes
                0x000005c7       0x33 ./QS/QS_trap_handler.o
 .ARM.attributes
                0x000005fa       0x33 ./QS/QS_uart.o
 .ARM.attributes
                0x0000062d       0x33 ./QS/QS_watchdog.o
 .ARM.attributes
                0x00000660       0x33 ./QS/QS_who_am_i.o
 .ARM.attributes
                0x00000693       0x21 ./QS/startup_stm32f40xx.o
 .ARM.attributes
                0x000006b4       0x33 ./Krusty/KActManager.o
 .ARM.attributes
                0x000006e7       0x33 ./Krusty/KBall_launcher.o
 .ARM.attributes
                0x0000071a       0x33 ./Krusty/KBall_sorter.o
 .ARM.attributes
                0x0000074d       0x33 ./Krusty/KFruit.o
 .ARM.attributes
                0x00000780       0x33 ./Krusty/KLift.o
 .ARM.attributes
                0x000007b3       0x33 ./Krusty/KPlate.o
 .ARM.attributes
                0x000007e6       0x33 ./Krusty/template.o
 .ARM.attributes
                0x00000819       0x33 ./Can_msg_processing.o
 .ARM.attributes
                0x0000084c       0x33 ./act_queue_utils.o
 .ARM.attributes
                0x0000087f       0x33 ./clock.o
 .ARM.attributes
                0x000008b2       0x33 ./main.o
 .ARM.attributes
                0x000008e5       0x33 ./maths_home.o
 .ARM.attributes
                0x00000918       0x33 ./queue.o
 .ARM.attributes
                0x0000094b       0x33 ../stm32f4xx\libstm32f4xx.a(misc.o)
 .ARM.attributes
                0x0000097e       0x33 ../stm32f4xx\libstm32f4xx.a(stm32f4xx_adc.o)
 .ARM.attributes
                0x000009b1       0x33 ../stm32f4xx\libstm32f4xx.a(stm32f4xx_can.o)
 .ARM.attributes
                0x000009e4       0x33 ../stm32f4xx\libstm32f4xx.a(stm32f4xx_dma.o)
 .ARM.attributes
                0x00000a17       0x33 ../stm32f4xx\libstm32f4xx.a(stm32f4xx_exti.o)
 .ARM.attributes
                0x00000a4a       0x33 ../stm32f4xx\libstm32f4xx.a(stm32f4xx_flash.o)
 .ARM.attributes
                0x00000a7d       0x33 ../stm32f4xx\libstm32f4xx.a(stm32f4xx_gpio.o)
 .ARM.attributes
                0x00000ab0       0x33 ../stm32f4xx\libstm32f4xx.a(stm32f4xx_rcc.o)
 .ARM.attributes
                0x00000ae3       0x33 ../stm32f4xx\libstm32f4xx.a(stm32f4xx_syscfg.o)
 .ARM.attributes
                0x00000b16       0x33 ../stm32f4xx\libstm32f4xx.a(stm32f4xx_tim.o)
 .ARM.attributes
                0x00000b49       0x33 ../stm32f4xx\libstm32f4xx.a(stm32f4xx_usart.o)
 .ARM.attributes
                0x00000b7c       0x33 ../stm32f4xx\libstm32f4xx.a(system_stm32f4xx.o)
 .ARM.attributes
                0x00000baf       0x1e c:/program files (x86)/eclipse-arm-eseo/gcc-arm-none-eabi-4_7-2013q2-20130614-win32/gnu tools arm embedded/4.7 2013q2/bin/../lib/gcc/arm-none-eabi/4.7.4/armv7e-m\libgcc.a(_arm_addsubdf3.o)
 .ARM.attributes
                0x00000bcd       0x1e c:/program files (x86)/eclipse-arm-eseo/gcc-arm-none-eabi-4_7-2013q2-20130614-win32/gnu tools arm embedded/4.7 2013q2/bin/../lib/gcc/arm-none-eabi/4.7.4/armv7e-m\libgcc.a(_arm_muldivdf3.o)
 .ARM.attributes
                0x00000beb       0x1e c:/program files (x86)/eclipse-arm-eseo/gcc-arm-none-eabi-4_7-2013q2-20130614-win32/gnu tools arm embedded/4.7 2013q2/bin/../lib/gcc/arm-none-eabi/4.7.4/armv7e-m\libgcc.a(_arm_fixdfsi.o)
 .ARM.attributes
                0x00000c09       0x2e c:/program files (x86)/eclipse-arm-eseo/gcc-arm-none-eabi-4_7-2013q2-20130614-win32/gnu tools arm embedded/4.7 2013q2/bin/../lib/gcc/arm-none-eabi/4.7.4/../../../../arm-none-eabi/lib/armv7e-m\libg.a(lib_a-errno.o)
 .ARM.attributes
                0x00000c37       0x2e c:/program files (x86)/eclipse-arm-eseo/gcc-arm-none-eabi-4_7-2013q2-20130614-win32/gnu tools arm embedded/4.7 2013q2/bin/../lib/gcc/arm-none-eabi/4.7.4/../../../../arm-none-eabi/lib/armv7e-m\libg.a(lib_a-impure.o)
 .ARM.attributes
                0x00000c65       0x2e c:/program files (x86)/eclipse-arm-eseo/gcc-arm-none-eabi-4_7-2013q2-20130614-win32/gnu tools arm embedded/4.7 2013q2/bin/../lib/gcc/arm-none-eabi/4.7.4/../../../../arm-none-eabi/lib/armv7e-m\libg.a(lib_a-printf.o)
 .ARM.attributes
                0x00000c93       0x2e c:/program files (x86)/eclipse-arm-eseo/gcc-arm-none-eabi-4_7-2013q2-20130614-win32/gnu tools arm embedded/4.7 2013q2/bin/../lib/gcc/arm-none-eabi/4.7.4/../../../../arm-none-eabi/lib/armv7e-m\libg.a(lib_a-setvbuf.o)
 .ARM.attributes
                0x00000cc1       0x2e c:/program files (x86)/eclipse-arm-eseo/gcc-arm-none-eabi-4_7-2013q2-20130614-win32/gnu tools arm embedded/4.7 2013q2/bin/../lib/gcc/arm-none-eabi/4.7.4/../../../../arm-none-eabi/lib/armv7e-m\libg.a(lib_a-vfprintf.o)
 .ARM.attributes
                0x00000cef       0x2e c:/program files (x86)/eclipse-arm-eseo/gcc-arm-none-eabi-4_7-2013q2-20130614-win32/gnu tools arm embedded/4.7 2013q2/bin/../lib/gcc/arm-none-eabi/4.7.4/../../../../arm-none-eabi/lib/armv7e-m\libg.a(lib_a-vprintf.o)
 .ARM.attributes
                0x00000d1d       0x2e c:/program files (x86)/eclipse-arm-eseo/gcc-arm-none-eabi-4_7-2013q2-20130614-win32/gnu tools arm embedded/4.7 2013q2/bin/../lib/gcc/arm-none-eabi/4.7.4/../../../../arm-none-eabi/lib/armv7e-m\libg.a(lib_a-wsetup.o)
 .ARM.attributes
                0x00000d4b       0x2e c:/program files (x86)/eclipse-arm-eseo/gcc-arm-none-eabi-4_7-2013q2-20130614-win32/gnu tools arm embedded/4.7 2013q2/bin/../lib/gcc/arm-none-eabi/4.7.4/../../../../arm-none-eabi/lib/armv7e-m\libg.a(lib_a-dtoa.o)
 .ARM.attributes
                0x00000d79       0x2e c:/program files (x86)/eclipse-arm-eseo/gcc-arm-none-eabi-4_7-2013q2-20130614-win32/gnu tools arm embedded/4.7 2013q2/bin/../lib/gcc/arm-none-eabi/4.7.4/../../../../arm-none-eabi/lib/armv7e-m\libg.a(lib_a-fflush.o)
 .ARM.attributes
                0x00000da7       0x2e c:/program files (x86)/eclipse-arm-eseo/gcc-arm-none-eabi-4_7-2013q2-20130614-win32/gnu tools arm embedded/4.7 2013q2/bin/../lib/gcc/arm-none-eabi/4.7.4/../../../../arm-none-eabi/lib/armv7e-m\libg.a(lib_a-findfp.o)
 .ARM.attributes
                0x00000dd5       0x2e c:/program files (x86)/eclipse-arm-eseo/gcc-arm-none-eabi-4_7-2013q2-20130614-win32/gnu tools arm embedded/4.7 2013q2/bin/../lib/gcc/arm-none-eabi/4.7.4/../../../../arm-none-eabi/lib/armv7e-m\libg.a(lib_a-freer.o)
 .ARM.attributes
                0x00000e03       0x2e c:/program files (x86)/eclipse-arm-eseo/gcc-arm-none-eabi-4_7-2013q2-20130614-win32/gnu tools arm embedded/4.7 2013q2/bin/../lib/gcc/arm-none-eabi/4.7.4/../../../../arm-none-eabi/lib/armv7e-m\libg.a(lib_a-fwalk.o)
 .ARM.attributes
                0x00000e31       0x2e c:/program files (x86)/eclipse-arm-eseo/gcc-arm-none-eabi-4_7-2013q2-20130614-win32/gnu tools arm embedded/4.7 2013q2/bin/../lib/gcc/arm-none-eabi/4.7.4/../../../../arm-none-eabi/lib/armv7e-m\libg.a(lib_a-locale.o)
 .ARM.attributes
                0x00000e5f       0x2e c:/program files (x86)/eclipse-arm-eseo/gcc-arm-none-eabi-4_7-2013q2-20130614-win32/gnu tools arm embedded/4.7 2013q2/bin/../lib/gcc/arm-none-eabi/4.7.4/../../../../arm-none-eabi/lib/armv7e-m\libg.a(lib_a-makebuf.o)
 .ARM.attributes
                0x00000e8d       0x2e c:/program files (x86)/eclipse-arm-eseo/gcc-arm-none-eabi-4_7-2013q2-20130614-win32/gnu tools arm embedded/4.7 2013q2/bin/../lib/gcc/arm-none-eabi/4.7.4/../../../../arm-none-eabi/lib/armv7e-m\libg.a(lib_a-malloc.o)
 .ARM.attributes
                0x00000ebb       0x2e c:/program files (x86)/eclipse-arm-eseo/gcc-arm-none-eabi-4_7-2013q2-20130614-win32/gnu tools arm embedded/4.7 2013q2/bin/../lib/gcc/arm-none-eabi/4.7.4/../../../../arm-none-eabi/lib/armv7e-m\libg.a(lib_a-mallocr.o)
 .ARM.attributes
                0x00000ee9       0x2e c:/program files (x86)/eclipse-arm-eseo/gcc-arm-none-eabi-4_7-2013q2-20130614-win32/gnu tools arm embedded/4.7 2013q2/bin/../lib/gcc/arm-none-eabi/4.7.4/../../../../arm-none-eabi/lib/armv7e-m\libg.a(lib_a-memchr.o)
 .ARM.attributes
                0x00000f17       0x2e c:/program files (x86)/eclipse-arm-eseo/gcc-arm-none-eabi-4_7-2013q2-20130614-win32/gnu tools arm embedded/4.7 2013q2/bin/../lib/gcc/arm-none-eabi/4.7.4/../../../../arm-none-eabi/lib/armv7e-m\libg.a(lib_a-memcpy.o)
 .ARM.attributes
                0x00000f45       0x2e c:/program files (x86)/eclipse-arm-eseo/gcc-arm-none-eabi-4_7-2013q2-20130614-win32/gnu tools arm embedded/4.7 2013q2/bin/../lib/gcc/arm-none-eabi/4.7.4/../../../../arm-none-eabi/lib/armv7e-m\libg.a(lib_a-memset.o)
 .ARM.attributes
                0x00000f73       0x2e c:/program files (x86)/eclipse-arm-eseo/gcc-arm-none-eabi-4_7-2013q2-20130614-win32/gnu tools arm embedded/4.7 2013q2/bin/../lib/gcc/arm-none-eabi/4.7.4/../../../../arm-none-eabi/lib/armv7e-m\libg.a(lib_a-mlock.o)
 .ARM.attributes
                0x00000fa1       0x2e c:/program files (x86)/eclipse-arm-eseo/gcc-arm-none-eabi-4_7-2013q2-20130614-win32/gnu tools arm embedded/4.7 2013q2/bin/../lib/gcc/arm-none-eabi/4.7.4/../../../../arm-none-eabi/lib/armv7e-m\libg.a(lib_a-mprec.o)
 .ARM.attributes
                0x00000fcf       0x2e c:/program files (x86)/eclipse-arm-eseo/gcc-arm-none-eabi-4_7-2013q2-20130614-win32/gnu tools arm embedded/4.7 2013q2/bin/../lib/gcc/arm-none-eabi/4.7.4/../../../../arm-none-eabi/lib/armv7e-m\libg.a(lib_a-s_fpclassify.o)
 .ARM.attributes
                0x00000ffd       0x2e c:/program files (x86)/eclipse-arm-eseo/gcc-arm-none-eabi-4_7-2013q2-20130614-win32/gnu tools arm embedded/4.7 2013q2/bin/../lib/gcc/arm-none-eabi/4.7.4/../../../../arm-none-eabi/lib/armv7e-m\libg.a(lib_a-sbrkr.o)
 .ARM.attributes
                0x0000102b       0x2e c:/program files (x86)/eclipse-arm-eseo/gcc-arm-none-eabi-4_7-2013q2-20130614-win32/gnu tools arm embedded/4.7 2013q2/bin/../lib/gcc/arm-none-eabi/4.7.4/../../../../arm-none-eabi/lib/armv7e-m\libg.a(lib_a-stdio.o)
 .ARM.attributes
                0x00001059       0x2e c:/program files (x86)/eclipse-arm-eseo/gcc-arm-none-eabi-4_7-2013q2-20130614-win32/gnu tools arm embedded/4.7 2013q2/bin/../lib/gcc/arm-none-eabi/4.7.4/../../../../arm-none-eabi/lib/armv7e-m\libg.a(lib_a-strcmp.o)
 .ARM.attributes
                0x00001087       0x2e c:/program files (x86)/eclipse-arm-eseo/gcc-arm-none-eabi-4_7-2013q2-20130614-win32/gnu tools arm embedded/4.7 2013q2/bin/../lib/gcc/arm-none-eabi/4.7.4/../../../../arm-none-eabi/lib/armv7e-m\libg.a(lib_a-strlen.o)
 .ARM.attributes
                0x000010b5       0x2e c:/program files (x86)/eclipse-arm-eseo/gcc-arm-none-eabi-4_7-2013q2-20130614-win32/gnu tools arm embedded/4.7 2013q2/bin/../lib/gcc/arm-none-eabi/4.7.4/../../../../arm-none-eabi/lib/armv7e-m\libg.a(lib_a-vfiprintf.o)
 .ARM.attributes
                0x000010e3       0x2e c:/program files (x86)/eclipse-arm-eseo/gcc-arm-none-eabi-4_7-2013q2-20130614-win32/gnu tools arm embedded/4.7 2013q2/bin/../lib/gcc/arm-none-eabi/4.7.4/../../../../arm-none-eabi/lib/armv7e-m\libg.a(lib_a-writer.o)
 .ARM.attributes
                0x00001111       0x2e c:/program files (x86)/eclipse-arm-eseo/gcc-arm-none-eabi-4_7-2013q2-20130614-win32/gnu tools arm embedded/4.7 2013q2/bin/../lib/gcc/arm-none-eabi/4.7.4/../../../../arm-none-eabi/lib/armv7e-m\libg.a(lib_a-callocr.o)
 .ARM.attributes
                0x0000113f       0x2e c:/program files (x86)/eclipse-arm-eseo/gcc-arm-none-eabi-4_7-2013q2-20130614-win32/gnu tools arm embedded/4.7 2013q2/bin/../lib/gcc/arm-none-eabi/4.7.4/../../../../arm-none-eabi/lib/armv7e-m\libg.a(lib_a-closer.o)
 .ARM.attributes
                0x0000116d       0x2e c:/program files (x86)/eclipse-arm-eseo/gcc-arm-none-eabi-4_7-2013q2-20130614-win32/gnu tools arm embedded/4.7 2013q2/bin/../lib/gcc/arm-none-eabi/4.7.4/../../../../arm-none-eabi/lib/armv7e-m\libg.a(lib_a-fclose.o)
 .ARM.attributes
                0x0000119b       0x2e c:/program files (x86)/eclipse-arm-eseo/gcc-arm-none-eabi-4_7-2013q2-20130614-win32/gnu tools arm embedded/4.7 2013q2/bin/../lib/gcc/arm-none-eabi/4.7.4/../../../../arm-none-eabi/lib/armv7e-m\libg.a(lib_a-fputwc.o)
 .ARM.attributes
                0x000011c9       0x2e c:/program files (x86)/eclipse-arm-eseo/gcc-arm-none-eabi-4_7-2013q2-20130614-win32/gnu tools arm embedded/4.7 2013q2/bin/../lib/gcc/arm-none-eabi/4.7.4/../../../../arm-none-eabi/lib/armv7e-m\libg.a(lib_a-fstatr.o)
 .ARM.attributes
                0x000011f7       0x2e c:/program files (x86)/eclipse-arm-eseo/gcc-arm-none-eabi-4_7-2013q2-20130614-win32/gnu tools arm embedded/4.7 2013q2/bin/../lib/gcc/arm-none-eabi/4.7.4/../../../../arm-none-eabi/lib/armv7e-m\libg.a(lib_a-fvwrite.o)
 .ARM.attributes
                0x00001225       0x2e c:/program files (x86)/eclipse-arm-eseo/gcc-arm-none-eabi-4_7-2013q2-20130614-win32/gnu tools arm embedded/4.7 2013q2/bin/../lib/gcc/arm-none-eabi/4.7.4/../../../../arm-none-eabi/lib/armv7e-m\libg.a(lib_a-isattyr.o)
 .ARM.attributes
                0x00001253       0x2e c:/program files (x86)/eclipse-arm-eseo/gcc-arm-none-eabi-4_7-2013q2-20130614-win32/gnu tools arm embedded/4.7 2013q2/bin/../lib/gcc/arm-none-eabi/4.7.4/../../../../arm-none-eabi/lib/armv7e-m\libg.a(lib_a-lseekr.o)
 .ARM.attributes
                0x00001281       0x2e c:/program files (x86)/eclipse-arm-eseo/gcc-arm-none-eabi-4_7-2013q2-20130614-win32/gnu tools arm embedded/4.7 2013q2/bin/../lib/gcc/arm-none-eabi/4.7.4/../../../../arm-none-eabi/lib/armv7e-m\libg.a(lib_a-memmove.o)
 .ARM.attributes
                0x000012af       0x2e c:/program files (x86)/eclipse-arm-eseo/gcc-arm-none-eabi-4_7-2013q2-20130614-win32/gnu tools arm embedded/4.7 2013q2/bin/../lib/gcc/arm-none-eabi/4.7.4/../../../../arm-none-eabi/lib/armv7e-m\libg.a(lib_a-readr.o)
 .ARM.attributes
                0x000012dd       0x2e c:/program files (x86)/eclipse-arm-eseo/gcc-arm-none-eabi-4_7-2013q2-20130614-win32/gnu tools arm embedded/4.7 2013q2/bin/../lib/gcc/arm-none-eabi/4.7.4/../../../../arm-none-eabi/lib/armv7e-m\libg.a(lib_a-reallocr.o)
 .ARM.attributes
                0x0000130b       0x2e c:/program files (x86)/eclipse-arm-eseo/gcc-arm-none-eabi-4_7-2013q2-20130614-win32/gnu tools arm embedded/4.7 2013q2/bin/../lib/gcc/arm-none-eabi/4.7.4/../../../../arm-none-eabi/lib/armv7e-m\libg.a(lib_a-reent.o)
 .ARM.attributes
                0x00001339       0x2e c:/program files (x86)/eclipse-arm-eseo/gcc-arm-none-eabi-4_7-2013q2-20130614-win32/gnu tools arm embedded/4.7 2013q2/bin/../lib/gcc/arm-none-eabi/4.7.4/../../../../arm-none-eabi/lib/armv7e-m\libg.a(lib_a-wbuf.o)
 .ARM.attributes
                0x00001367       0x2e c:/program files (x86)/eclipse-arm-eseo/gcc-arm-none-eabi-4_7-2013q2-20130614-win32/gnu tools arm embedded/4.7 2013q2/bin/../lib/gcc/arm-none-eabi/4.7.4/../../../../arm-none-eabi/lib/armv7e-m\libg.a(lib_a-wcrtomb.o)
 .ARM.attributes
                0x00001395       0x2e c:/program files (x86)/eclipse-arm-eseo/gcc-arm-none-eabi-4_7-2013q2-20130614-win32/gnu tools arm embedded/4.7 2013q2/bin/../lib/gcc/arm-none-eabi/4.7.4/../../../../arm-none-eabi/lib/armv7e-m\libg.a(lib_a-wctomb_r.o)
 .ARM.attributes
                0x000013c3       0x1e c:/program files (x86)/eclipse-arm-eseo/gcc-arm-none-eabi-4_7-2013q2-20130614-win32/gnu tools arm embedded/4.7 2013q2/bin/../lib/gcc/arm-none-eabi/4.7.4/armv7e-m\libgcc.a(_arm_cmpdf2.o)
 .ARM.attributes
                0x000013e1       0x1e c:/program files (x86)/eclipse-arm-eseo/gcc-arm-none-eabi-4_7-2013q2-20130614-win32/gnu tools arm embedded/4.7 2013q2/bin/../lib/gcc/arm-none-eabi/4.7.4/armv7e-m\libgcc.a(_aeabi_uldivmod.o)
 .ARM.attributes
                0x000013ff       0x2e c:/program files (x86)/eclipse-arm-eseo/gcc-arm-none-eabi-4_7-2013q2-20130614-win32/gnu tools arm embedded/4.7 2013q2/bin/../lib/gcc/arm-none-eabi/4.7.4/armv7e-m\libgcc.a(bpabi.o)
 .ARM.attributes
                0x0000142d       0x1e c:/program files (x86)/eclipse-arm-eseo/gcc-arm-none-eabi-4_7-2013q2-20130614-win32/gnu tools arm embedded/4.7 2013q2/bin/../lib/gcc/arm-none-eabi/4.7.4/armv7e-m\libgcc.a(_dvmd_tls.o)
 .ARM.attributes
                0x0000144b       0x2e c:/program files (x86)/eclipse-arm-eseo/gcc-arm-none-eabi-4_7-2013q2-20130614-win32/gnu tools arm embedded/4.7 2013q2/bin/../lib/gcc/arm-none-eabi/4.7.4/armv7e-m\libgcc.a(_divdi3.o)
 .ARM.attributes
                0x00001479       0x2e c:/program files (x86)/eclipse-arm-eseo/gcc-arm-none-eabi-4_7-2013q2-20130614-win32/gnu tools arm embedded/4.7 2013q2/bin/../lib/gcc/arm-none-eabi/4.7.4/armv7e-m\libgcc.a(_udivdi3.o)

.debug
 *(.debug)

.line
 *(.line)

.debug_srcinfo
 *(.debug_srcinfo)

.debug_sfnames
 *(.debug_sfnames)

.debug_aranges  0x00000000     0x1048
 *(.debug_aranges)
 .debug_aranges
                0x00000000       0x18 ./Tiny/TActManager.o
 .debug_aranges
                0x00000018       0x18 ./Tiny/TBall_inflater.o
 .debug_aranges
                0x00000030       0x18 ./Tiny/TCandle_color_sensor.o
 .debug_aranges
                0x00000048       0x18 ./Tiny/THammer.o
 .debug_aranges
                0x00000060       0x18 ./Tiny/TPlier.o
 .debug_aranges
                0x00000078       0x20 ./QS/impl/QS_uart_stm32f4.o
 .debug_aranges
                0x00000098       0x18 ./QS/QS_CapteurCouleurCW.o
 .debug_aranges
                0x000000b0       0x20 ./QS/QS_DCMotor2.o
 .debug_aranges
                0x000000d0       0x18 ./QS/QS_Step_motor.o
 .debug_aranges
                0x000000e8       0x20 ./QS/QS_adc.o
 .debug_aranges
                0x00000108       0x20 ./QS/QS_ax12.o
 .debug_aranges
                0x00000128       0x18 ./QS/QS_buffer_fifo.o
 .debug_aranges
                0x00000140       0x20 ./QS/QS_buttons.o
 .debug_aranges
                0x00000160       0x20 ./QS/QS_can.o
 .debug_aranges
                0x00000180       0x20 ./QS/QS_can_over_uart.o
 .debug_aranges
                0x000001a0       0x18 ./QS/QS_can_over_xbee.o
 .debug_aranges
                0x000001b8       0x18 ./QS/QS_configCheck.o
 .debug_aranges
                0x000001d0       0x20 ./QS/QS_external_it.o
 .debug_aranges
                0x000001f0       0x18 ./QS/QS_global_vars.o
 .debug_aranges
                0x00000208       0x18 ./QS/QS_i2c.o
 .debug_aranges
                0x00000220       0x20 ./QS/QS_outputlog.o
 .debug_aranges
                0x00000240       0x20 ./QS/QS_ports.o
 .debug_aranges
                0x00000260       0x20 ./QS/QS_pwm.o
 .debug_aranges
                0x00000280       0x20 ./QS/QS_qei.o
 .debug_aranges
                0x000002a0       0x18 ./QS/QS_rf.o
 .debug_aranges
                0x000002b8       0x18 ./QS/QS_servo.o
 .debug_aranges
                0x000002d0       0x18 ./QS/QS_spi.o
 .debug_aranges
                0x000002e8       0x20 ./QS/QS_sys.o
 .debug_aranges
                0x00000308       0x20 ./QS/QS_timer.o
 .debug_aranges
                0x00000328       0x20 ./QS/QS_trap_handler.o
 .debug_aranges
                0x00000348       0x20 ./QS/QS_uart.o
 .debug_aranges
                0x00000368       0x18 ./QS/QS_watchdog.o
 .debug_aranges
                0x00000380       0x20 ./QS/QS_who_am_i.o
 .debug_aranges
                0x000003a0       0x28 ./QS/startup_stm32f40xx.o
 .debug_aranges
                0x000003c8       0x20 ./Krusty/KActManager.o
 .debug_aranges
                0x000003e8       0x20 ./Krusty/KBall_launcher.o
 .debug_aranges
                0x00000408       0x20 ./Krusty/KBall_sorter.o
 .debug_aranges
                0x00000428       0x20 ./Krusty/KFruit.o
 .debug_aranges
                0x00000448       0x20 ./Krusty/KLift.o
 .debug_aranges
                0x00000468       0x20 ./Krusty/KPlate.o
 .debug_aranges
                0x00000488       0x18 ./Krusty/template.o
 .debug_aranges
                0x000004a0       0x20 ./Can_msg_processing.o
 .debug_aranges
                0x000004c0       0x20 ./act_queue_utils.o
 .debug_aranges
                0x000004e0       0x20 ./clock.o
 .debug_aranges
                0x00000500       0x20 ./main.o
 .debug_aranges
                0x00000520       0x20 ./maths_home.o
 .debug_aranges
                0x00000540       0x20 ./queue.o
 .debug_aranges
                0x00000560       0x40 ../stm32f4xx\libstm32f4xx.a(misc.o)
 .debug_aranges
                0x000005a0      0x148 ../stm32f4xx\libstm32f4xx.a(stm32f4xx_adc.o)
 .debug_aranges
                0x000006e8       0xd8 ../stm32f4xx\libstm32f4xx.a(stm32f4xx_can.o)
 .debug_aranges
                0x000007c0       0xb0 ../stm32f4xx\libstm32f4xx.a(stm32f4xx_dma.o)
 .debug_aranges
                0x00000870       0x58 ../stm32f4xx\libstm32f4xx.a(stm32f4xx_exti.o)
 .debug_aranges
                0x000008c8      0x118 ../stm32f4xx\libstm32f4xx.a(stm32f4xx_flash.o)
 .debug_aranges
                0x000009e0       0x88 ../stm32f4xx\libstm32f4xx.a(stm32f4xx_gpio.o)
 .debug_aranges
                0x00000a68      0x188 ../stm32f4xx\libstm32f4xx.a(stm32f4xx_rcc.o)
 .debug_aranges
                0x00000bf0       0x48 ../stm32f4xx\libstm32f4xx.a(stm32f4xx_syscfg.o)
 .debug_aranges
                0x00000c38      0x2e8 ../stm32f4xx\libstm32f4xx.a(stm32f4xx_tim.o)
 .debug_aranges
                0x00000f20      0x100 ../stm32f4xx\libstm32f4xx.a(stm32f4xx_usart.o)
 .debug_aranges
                0x00001020       0x28 ../stm32f4xx\libstm32f4xx.a(system_stm32f4xx.o)

.debug_pubnames
 *(.debug_pubnames)

.debug_info     0x00000000    0x1abe7
 *(.debug_info .gnu.linkonce.wi.*)
 .debug_info    0x00000000       0x8d ./Tiny/TActManager.o
 .debug_info    0x0000008d       0x8d ./Tiny/TBall_inflater.o
 .debug_info    0x0000011a       0x8d ./Tiny/TCandle_color_sensor.o
 .debug_info    0x000001a7       0x8d ./Tiny/THammer.o
 .debug_info    0x00000234       0x8d ./Tiny/TPlier.o
 .debug_info    0x000002c1      0xc0d ./QS/impl/QS_uart_stm32f4.o
 .debug_info    0x00000ece       0x8d ./QS/QS_CapteurCouleurCW.o
 .debug_info    0x00000f5b      0x942 ./QS/QS_DCMotor2.o
 .debug_info    0x0000189d       0x8d ./QS/QS_Step_motor.o
 .debug_info    0x0000192a      0x53f ./QS/QS_adc.o
 .debug_info    0x00001e69     0x27cb ./QS/QS_ax12.o
 .debug_info    0x00004634       0x8d ./QS/QS_buffer_fifo.o
 .debug_info    0x000046c1      0xaf7 ./QS/QS_buttons.o
 .debug_info    0x000051b8      0xd89 ./QS/QS_can.o
 .debug_info    0x00005f41      0x29b ./QS/QS_can_over_uart.o
 .debug_info    0x000061dc       0x8d ./QS/QS_can_over_xbee.o
 .debug_info    0x00006269       0x8d ./QS/QS_configCheck.o
 .debug_info    0x000062f6      0x826 ./QS/QS_external_it.o
 .debug_info    0x00006b1c      0x103 ./QS/QS_global_vars.o
 .debug_info    0x00006c1f       0x8d ./QS/QS_i2c.o
 .debug_info    0x00006cac      0x1b0 ./QS/QS_outputlog.o
 .debug_info    0x00006e5c      0xcc1 ./QS/QS_ports.o
 .debug_info    0x00007b1d      0x4b7 ./QS/QS_pwm.o
 .debug_info    0x00007fd4      0x3e0 ./QS/QS_qei.o
 .debug_info    0x000083b4       0x8d ./QS/QS_rf.o
 .debug_info    0x00008441       0x8d ./QS/QS_servo.o
 .debug_info    0x000084ce       0x8d ./QS/QS_spi.o
 .debug_info    0x0000855b     0x133c ./QS/QS_sys.o
 .debug_info    0x00009897      0xc9c ./QS/QS_timer.o
 .debug_info    0x0000a533      0x42e ./QS/QS_trap_handler.o
 .debug_info    0x0000a961     0x1019 ./QS/QS_uart.o
 .debug_info    0x0000b97a       0x8d ./QS/QS_watchdog.o
 .debug_info    0x0000ba07      0x949 ./QS/QS_who_am_i.o
 .debug_info    0x0000c350       0x8d ./QS/startup_stm32f40xx.o
 .debug_info    0x0000c3dd      0x341 ./Krusty/KActManager.o
 .debug_info    0x0000c71e      0x313 ./Krusty/KBall_launcher.o
 .debug_info    0x0000ca31      0xc5f ./Krusty/KBall_sorter.o
 .debug_info    0x0000d690      0x3b4 ./Krusty/KFruit.o
 .debug_info    0x0000da44      0xe33 ./Krusty/KLift.o
 .debug_info    0x0000e877      0xd81 ./Krusty/KPlate.o
 .debug_info    0x0000f5f8       0x21 ./Krusty/template.o
 .debug_info    0x0000f619      0x1d7 ./Can_msg_processing.o
 .debug_info    0x0000f7f0      0x85c ./act_queue_utils.o
 .debug_info    0x0001004c      0xb6f ./clock.o
 .debug_info    0x00010bbb      0xaa6 ./main.o
 .debug_info    0x00011661      0x143 ./maths_home.o
 .debug_info    0x000117a4      0xf32 ./queue.o
 .debug_info    0x000126d6      0x597 ../stm32f4xx\libstm32f4xx.a(misc.o)
 .debug_info    0x00012c6d      0xd67 ../stm32f4xx\libstm32f4xx.a(stm32f4xx_adc.o)
 .debug_info    0x000139d4      0xd01 ../stm32f4xx\libstm32f4xx.a(stm32f4xx_can.o)
 .debug_info    0x000146d5      0x7b3 ../stm32f4xx\libstm32f4xx.a(stm32f4xx_dma.o)
 .debug_info    0x00014e88      0x375 ../stm32f4xx\libstm32f4xx.a(stm32f4xx_exti.o)
 .debug_info    0x000151fd      0x8e9 ../stm32f4xx\libstm32f4xx.a(stm32f4xx_flash.o)
 .debug_info    0x00015ae6      0xc14 ../stm32f4xx\libstm32f4xx.a(stm32f4xx_gpio.o)
 .debug_info    0x000166fa      0xdcb ../stm32f4xx\libstm32f4xx.a(stm32f4xx_rcc.o)
 .debug_info    0x000174c5      0x2c6 ../stm32f4xx\libstm32f4xx.a(stm32f4xx_syscfg.o)
 .debug_info    0x0001778b     0x2276 ../stm32f4xx\libstm32f4xx.a(stm32f4xx_tim.o)
 .debug_info    0x00019a01      0xbb1 ../stm32f4xx\libstm32f4xx.a(stm32f4xx_usart.o)
 .debug_info    0x0001a5b2      0x635 ../stm32f4xx\libstm32f4xx.a(system_stm32f4xx.o)

.debug_abbrev   0x00000000     0x4e95
 *(.debug_abbrev)
 .debug_abbrev  0x00000000       0x4e ./Tiny/TActManager.o
 .debug_abbrev  0x0000004e       0x4e ./Tiny/TBall_inflater.o
 .debug_abbrev  0x0000009c       0x4e ./Tiny/TCandle_color_sensor.o
 .debug_abbrev  0x000000ea       0x4e ./Tiny/THammer.o
 .debug_abbrev  0x00000138       0x4e ./Tiny/TPlier.o
 .debug_abbrev  0x00000186      0x1e0 ./QS/impl/QS_uart_stm32f4.o
 .debug_abbrev  0x00000366       0x4e ./QS/QS_CapteurCouleurCW.o
 .debug_abbrev  0x000003b4      0x202 ./QS/QS_DCMotor2.o
 .debug_abbrev  0x000005b6       0x4e ./QS/QS_Step_motor.o
 .debug_abbrev  0x00000604      0x13f ./QS/QS_adc.o
 .debug_abbrev  0x00000743      0x311 ./QS/QS_ax12.o
 .debug_abbrev  0x00000a54       0x4e ./QS/QS_buffer_fifo.o
 .debug_abbrev  0x00000aa2      0x189 ./QS/QS_buttons.o
 .debug_abbrev  0x00000c2b      0x27a ./QS/QS_can.o
 .debug_abbrev  0x00000ea5      0x13c ./QS/QS_can_over_uart.o
 .debug_abbrev  0x00000fe1       0x4e ./QS/QS_can_over_xbee.o
 .debug_abbrev  0x0000102f       0x4e ./QS/QS_configCheck.o
 .debug_abbrev  0x0000107d      0x1a9 ./QS/QS_external_it.o
 .debug_abbrev  0x00001226       0x9c ./QS/QS_global_vars.o
 .debug_abbrev  0x000012c2       0x4e ./QS/QS_i2c.o
 .debug_abbrev  0x00001310       0xf0 ./QS/QS_outputlog.o
 .debug_abbrev  0x00001400      0x1e4 ./QS/QS_ports.o
 .debug_abbrev  0x000015e4      0x101 ./QS/QS_pwm.o
 .debug_abbrev  0x000016e5      0x115 ./QS/QS_qei.o
 .debug_abbrev  0x000017fa       0x4e ./QS/QS_rf.o
 .debug_abbrev  0x00001848       0x4e ./QS/QS_servo.o
 .debug_abbrev  0x00001896       0x4e ./QS/QS_spi.o
 .debug_abbrev  0x000018e4      0x313 ./QS/QS_sys.o
 .debug_abbrev  0x00001bf7      0x1de ./QS/QS_timer.o
 .debug_abbrev  0x00001dd5      0x1a5 ./QS/QS_trap_handler.o
 .debug_abbrev  0x00001f7a      0x230 ./QS/QS_uart.o
 .debug_abbrev  0x000021aa       0x4e ./QS/QS_watchdog.o
 .debug_abbrev  0x000021f8      0x14a ./QS/QS_who_am_i.o
 .debug_abbrev  0x00002342       0x12 ./QS/startup_stm32f40xx.o
 .debug_abbrev  0x00002354      0x174 ./Krusty/KActManager.o
 .debug_abbrev  0x000024c8      0x148 ./Krusty/KBall_launcher.o
 .debug_abbrev  0x00002610      0x208 ./Krusty/KBall_sorter.o
 .debug_abbrev  0x00002818      0x17f ./Krusty/KFruit.o
 .debug_abbrev  0x00002997      0x25e ./Krusty/KLift.o
 .debug_abbrev  0x00002bf5      0x26c ./Krusty/KPlate.o
 .debug_abbrev  0x00002e61       0x13 ./Krusty/template.o
 .debug_abbrev  0x00002e74       0xf3 ./Can_msg_processing.o
 .debug_abbrev  0x00002f67      0x167 ./act_queue_utils.o
 .debug_abbrev  0x000030ce      0x153 ./clock.o
 .debug_abbrev  0x00003221      0x19e ./main.o
 .debug_abbrev  0x000033bf       0x7d ./maths_home.o
 .debug_abbrev  0x0000343c      0x282 ./queue.o
 .debug_abbrev  0x000036be      0x13a ../stm32f4xx\libstm32f4xx.a(misc.o)
 .debug_abbrev  0x000037f8      0x215 ../stm32f4xx\libstm32f4xx.a(stm32f4xx_adc.o)
 .debug_abbrev  0x00003a0d      0x27e ../stm32f4xx\libstm32f4xx.a(stm32f4xx_can.o)
 .debug_abbrev  0x00003c8b      0x1ad ../stm32f4xx\libstm32f4xx.a(stm32f4xx_dma.o)
 .debug_abbrev  0x00003e38      0x1e1 ../stm32f4xx\libstm32f4xx.a(stm32f4xx_exti.o)
 .debug_abbrev  0x00004019      0x22d ../stm32f4xx\libstm32f4xx.a(stm32f4xx_flash.o)
 .debug_abbrev  0x00004246      0x25d ../stm32f4xx\libstm32f4xx.a(stm32f4xx_gpio.o)
 .debug_abbrev  0x000044a3      0x21c ../stm32f4xx\libstm32f4xx.a(stm32f4xx_rcc.o)
 .debug_abbrev  0x000046bf      0x185 ../stm32f4xx\libstm32f4xx.a(stm32f4xx_syscfg.o)
 .debug_abbrev  0x00004844      0x2cb ../stm32f4xx\libstm32f4xx.a(stm32f4xx_tim.o)
 .debug_abbrev  0x00004b0f      0x225 ../stm32f4xx\libstm32f4xx.a(stm32f4xx_usart.o)
 .debug_abbrev  0x00004d34      0x161 ../stm32f4xx\libstm32f4xx.a(system_stm32f4xx.o)

.debug_line     0x00000000    0x13eb4
 *(.debug_line)
 .debug_line    0x00000000      0x54f ./Tiny/TActManager.o
 .debug_line    0x0000054f      0x555 ./Tiny/TBall_inflater.o
 .debug_line    0x00000aa4      0x561 ./Tiny/TCandle_color_sensor.o
 .debug_line    0x00001005      0x547 ./Tiny/THammer.o
 .debug_line    0x0000154c      0x545 ./Tiny/TPlier.o
 .debug_line    0x00001a91      0x611 ./QS/impl/QS_uart_stm32f4.o
 .debug_line    0x000020a2      0x565 ./QS/QS_CapteurCouleurCW.o
 .debug_line    0x00002607      0x6e2 ./QS/QS_DCMotor2.o
 .debug_line    0x00002ce9      0x53b ./QS/QS_Step_motor.o
 .debug_line    0x00003224      0x59e ./QS/QS_adc.o
 .debug_line    0x000037c2      0xac7 ./QS/QS_ax12.o
 .debug_line    0x00004289      0x53d ./QS/QS_buffer_fifo.o
 .debug_line    0x000047c6      0x644 ./QS/QS_buttons.o
 .debug_line    0x00004e0a      0x6a4 ./QS/QS_can.o
 .debug_line    0x000054ae      0x665 ./QS/QS_can_over_uart.o
 .debug_line    0x00005b13      0x541 ./QS/QS_can_over_xbee.o
 .debug_line    0x00006054      0x549 ./QS/QS_configCheck.o
 .debug_line    0x0000659d      0x5d1 ./QS/QS_external_it.o
 .debug_line    0x00006b6e      0x529 ./QS/QS_global_vars.o
 .debug_line    0x00007097      0x593 ./QS/QS_i2c.o
 .debug_line    0x0000762a      0x600 ./QS/QS_outputlog.o
 .debug_line    0x00007c2a      0x639 ./QS/QS_ports.o
 .debug_line    0x00008263      0x59d ./QS/QS_pwm.o
 .debug_line    0x00008800      0x579 ./QS/QS_qei.o
 .debug_line    0x00008d79      0x52b ./QS/QS_rf.o
 .debug_line    0x000092a4      0x531 ./QS/QS_servo.o
 .debug_line    0x000097d5      0x560 ./QS/QS_spi.o
 .debug_line    0x00009d35      0x713 ./QS/QS_sys.o
 .debug_line    0x0000a448      0x618 ./QS/QS_timer.o
 .debug_line    0x0000aa60      0x5d8 ./QS/QS_trap_handler.o
 .debug_line    0x0000b038      0x5e6 ./QS/QS_uart.o
 .debug_line    0x0000b61e      0x537 ./QS/QS_watchdog.o
 .debug_line    0x0000bb55      0x574 ./QS/QS_who_am_i.o
 .debug_line    0x0000c0c9       0x76 ./QS/startup_stm32f40xx.o
 .debug_line    0x0000c13f      0x689 ./Krusty/KActManager.o
 .debug_line    0x0000c7c8      0x674 ./Krusty/KBall_launcher.o
 .debug_line    0x0000ce3c      0x72d ./Krusty/KBall_sorter.o
 .debug_line    0x0000d569      0x6ae ./Krusty/KFruit.o
 .debug_line    0x0000dc17      0x873 ./Krusty/KLift.o
 .debug_line    0x0000e48a      0x6f0 ./Krusty/KPlate.o
 .debug_line    0x0000eb7a       0x35 ./Krusty/template.o
 .debug_line    0x0000ebaf      0x678 ./Can_msg_processing.o
 .debug_line    0x0000f227      0x709 ./act_queue_utils.o
 .debug_line    0x0000f930      0x5c8 ./clock.o
 .debug_line    0x0000fef8      0x78f ./main.o
 .debug_line    0x00010687      0x5ac ./maths_home.o
 .debug_line    0x00010c33      0x6c6 ./queue.o
 .debug_line    0x000112f9      0x172 ../stm32f4xx\libstm32f4xx.a(misc.o)
 .debug_line    0x0001146b      0x4a4 ../stm32f4xx\libstm32f4xx.a(stm32f4xx_adc.o)
 .debug_line    0x0001190f      0x4b7 ../stm32f4xx\libstm32f4xx.a(stm32f4xx_can.o)
 .debug_line    0x00011dc6      0x31f ../stm32f4xx\libstm32f4xx.a(stm32f4xx_dma.o)
 .debug_line    0x000120e5      0x1d6 ../stm32f4xx\libstm32f4xx.a(stm32f4xx_exti.o)
 .debug_line    0x000122bb      0x3cc ../stm32f4xx\libstm32f4xx.a(stm32f4xx_flash.o)
 .debug_line    0x00012687      0x27f ../stm32f4xx\libstm32f4xx.a(stm32f4xx_gpio.o)
 .debug_line    0x00012906      0x4d1 ../stm32f4xx\libstm32f4xx.a(stm32f4xx_rcc.o)
 .debug_line    0x00012dd7      0x18c ../stm32f4xx\libstm32f4xx.a(stm32f4xx_syscfg.o)
 .debug_line    0x00012f63      0x9f5 ../stm32f4xx\libstm32f4xx.a(stm32f4xx_tim.o)
 .debug_line    0x00013958      0x3e7 ../stm32f4xx\libstm32f4xx.a(stm32f4xx_usart.o)
 .debug_line    0x00013d3f      0x175 ../stm32f4xx\libstm32f4xx.a(system_stm32f4xx.o)

.debug_frame    0x00000000     0x4f94
 *(.debug_frame)
 .debug_frame   0x00000000      0x380 ./QS/impl/QS_uart_stm32f4.o
 .debug_frame   0x00000380      0x1ec ./QS/QS_DCMotor2.o
 .debug_frame   0x0000056c       0x4c ./QS/QS_adc.o
 .debug_frame   0x000005b8      0xa18 ./QS/QS_ax12.o
 .debug_frame   0x00000fd0       0x88 ./QS/QS_buttons.o
 .debug_frame   0x00001058      0x1c8 ./QS/QS_can.o
 .debug_frame   0x00001220       0x6c ./QS/QS_can_over_uart.o
 .debug_frame   0x0000128c      0x108 ./QS/QS_external_it.o
 .debug_frame   0x00001394       0x78 ./QS/QS_outputlog.o
 .debug_frame   0x0000140c      0x110 ./QS/QS_ports.o
 .debug_frame   0x0000151c       0x70 ./QS/QS_pwm.o
 .debug_frame   0x0000158c       0xa4 ./QS/QS_qei.o
 .debug_frame   0x00001630      0x238 ./QS/QS_sys.o
 .debug_frame   0x00001868      0x438 ./QS/QS_timer.o
 .debug_frame   0x00001ca0       0xd0 ./QS/QS_trap_handler.o
 .debug_frame   0x00001d70      0x100 ./QS/QS_uart.o
 .debug_frame   0x00001e70       0x48 ./QS/QS_who_am_i.o
 .debug_frame   0x00001eb8       0xc8 ./Krusty/KActManager.o
 .debug_frame   0x00001f80       0x8c ./Krusty/KBall_launcher.o
 .debug_frame   0x0000200c       0xa8 ./Krusty/KBall_sorter.o
 .debug_frame   0x000020b4       0xe4 ./Krusty/KFruit.o
 .debug_frame   0x00002198      0x16c ./Krusty/KLift.o
 .debug_frame   0x00002304      0x144 ./Krusty/KPlate.o
 .debug_frame   0x00002448       0x30 ./Can_msg_processing.o
 .debug_frame   0x00002478      0x19c ./act_queue_utils.o
 .debug_frame   0x00002614       0x64 ./clock.o
 .debug_frame   0x00002678       0xb4 ./main.o
 .debug_frame   0x0000272c       0x70 ./maths_home.o
 .debug_frame   0x0000279c      0x23c ./queue.o
 .debug_frame   0x000029d8       0x60 ../stm32f4xx\libstm32f4xx.a(misc.o)
 .debug_frame   0x00002a38      0x2bc ../stm32f4xx\libstm32f4xx.a(stm32f4xx_adc.o)
 .debug_frame   0x00002cf4      0x1c8 ../stm32f4xx\libstm32f4xx.a(stm32f4xx_can.o)
 .debug_frame   0x00002ebc      0x17c ../stm32f4xx\libstm32f4xx.a(stm32f4xx_dma.o)
 .debug_frame   0x00003038       0x9c ../stm32f4xx\libstm32f4xx.a(stm32f4xx_exti.o)
 .debug_frame   0x000030d4      0x2c0 ../stm32f4xx\libstm32f4xx.a(stm32f4xx_flash.o)
 .debug_frame   0x00003394      0x124 ../stm32f4xx\libstm32f4xx.a(stm32f4xx_gpio.o)
 .debug_frame   0x000034b8      0x318 ../stm32f4xx\libstm32f4xx.a(stm32f4xx_rcc.o)
 .debug_frame   0x000037d0       0x88 ../stm32f4xx\libstm32f4xx.a(stm32f4xx_syscfg.o)
 .debug_frame   0x00003858      0x6a0 ../stm32f4xx\libstm32f4xx.a(stm32f4xx_tim.o)
 .debug_frame   0x00003ef8      0x220 ../stm32f4xx\libstm32f4xx.a(stm32f4xx_usart.o)
 .debug_frame   0x00004118       0x34 ../stm32f4xx\libstm32f4xx.a(system_stm32f4xx.o)
 .debug_frame   0x0000414c       0x20 c:/program files (x86)/eclipse-arm-eseo/gcc-arm-none-eabi-4_7-2013q2-20130614-win32/gnu tools arm embedded/4.7 2013q2/bin/../lib/gcc/arm-none-eabi/4.7.4/../../../../arm-none-eabi/lib/armv7e-m\libg.a(lib_a-errno.o)
 .debug_frame   0x0000416c       0x58 c:/program files (x86)/eclipse-arm-eseo/gcc-arm-none-eabi-4_7-2013q2-20130614-win32/gnu tools arm embedded/4.7 2013q2/bin/../lib/gcc/arm-none-eabi/4.7.4/../../../../arm-none-eabi/lib/armv7e-m\libg.a(lib_a-printf.o)
 .debug_frame   0x000041c4       0x34 c:/program files (x86)/eclipse-arm-eseo/gcc-arm-none-eabi-4_7-2013q2-20130614-win32/gnu tools arm embedded/4.7 2013q2/bin/../lib/gcc/arm-none-eabi/4.7.4/../../../../arm-none-eabi/lib/armv7e-m\libg.a(lib_a-setvbuf.o)
 .debug_frame   0x000041f8       0x80 c:/program files (x86)/eclipse-arm-eseo/gcc-arm-none-eabi-4_7-2013q2-20130614-win32/gnu tools arm embedded/4.7 2013q2/bin/../lib/gcc/arm-none-eabi/4.7.4/../../../../arm-none-eabi/lib/armv7e-m\libg.a(lib_a-vfprintf.o)
 .debug_frame   0x00004278       0x38 c:/program files (x86)/eclipse-arm-eseo/gcc-arm-none-eabi-4_7-2013q2-20130614-win32/gnu tools arm embedded/4.7 2013q2/bin/../lib/gcc/arm-none-eabi/4.7.4/../../../../arm-none-eabi/lib/armv7e-m\libg.a(lib_a-vprintf.o)
 .debug_frame   0x000042b0       0x2c c:/program files (x86)/eclipse-arm-eseo/gcc-arm-none-eabi-4_7-2013q2-20130614-win32/gnu tools arm embedded/4.7 2013q2/bin/../lib/gcc/arm-none-eabi/4.7.4/../../../../arm-none-eabi/lib/armv7e-m\libg.a(lib_a-wsetup.o)
 .debug_frame   0x000042dc       0x64 c:/program files (x86)/eclipse-arm-eseo/gcc-arm-none-eabi-4_7-2013q2-20130614-win32/gnu tools arm embedded/4.7 2013q2/bin/../lib/gcc/arm-none-eabi/4.7.4/../../../../arm-none-eabi/lib/armv7e-m\libg.a(lib_a-dtoa.o)
 .debug_frame   0x00004340       0x40 c:/program files (x86)/eclipse-arm-eseo/gcc-arm-none-eabi-4_7-2013q2-20130614-win32/gnu tools arm embedded/4.7 2013q2/bin/../lib/gcc/arm-none-eabi/4.7.4/../../../../arm-none-eabi/lib/armv7e-m\libg.a(lib_a-fflush.o)
 .debug_frame   0x00004380      0x11c c:/program files (x86)/eclipse-arm-eseo/gcc-arm-none-eabi-4_7-2013q2-20130614-win32/gnu tools arm embedded/4.7 2013q2/bin/../lib/gcc/arm-none-eabi/4.7.4/../../../../arm-none-eabi/lib/armv7e-m\libg.a(lib_a-findfp.o)
 .debug_frame   0x0000449c       0x50 c:/program files (x86)/eclipse-arm-eseo/gcc-arm-none-eabi-4_7-2013q2-20130614-win32/gnu tools arm embedded/4.7 2013q2/bin/../lib/gcc/arm-none-eabi/4.7.4/../../../../arm-none-eabi/lib/armv7e-m\libg.a(lib_a-freer.o)
 .debug_frame   0x000044ec       0x5c c:/program files (x86)/eclipse-arm-eseo/gcc-arm-none-eabi-4_7-2013q2-20130614-win32/gnu tools arm embedded/4.7 2013q2/bin/../lib/gcc/arm-none-eabi/4.7.4/../../../../arm-none-eabi/lib/armv7e-m\libg.a(lib_a-fwalk.o)
 .debug_frame   0x00004548       0xa0 c:/program files (x86)/eclipse-arm-eseo/gcc-arm-none-eabi-4_7-2013q2-20130614-win32/gnu tools arm embedded/4.7 2013q2/bin/../lib/gcc/arm-none-eabi/4.7.4/../../../../arm-none-eabi/lib/armv7e-m\libg.a(lib_a-locale.o)
 .debug_frame   0x000045e8       0x30 c:/program files (x86)/eclipse-arm-eseo/gcc-arm-none-eabi-4_7-2013q2-20130614-win32/gnu tools arm embedded/4.7 2013q2/bin/../lib/gcc/arm-none-eabi/4.7.4/../../../../arm-none-eabi/lib/armv7e-m\libg.a(lib_a-makebuf.o)
 .debug_frame   0x00004618       0x30 c:/program files (x86)/eclipse-arm-eseo/gcc-arm-none-eabi-4_7-2013q2-20130614-win32/gnu tools arm embedded/4.7 2013q2/bin/../lib/gcc/arm-none-eabi/4.7.4/../../../../arm-none-eabi/lib/armv7e-m\libg.a(lib_a-malloc.o)
 .debug_frame   0x00004648       0x38 c:/program files (x86)/eclipse-arm-eseo/gcc-arm-none-eabi-4_7-2013q2-20130614-win32/gnu tools arm embedded/4.7 2013q2/bin/../lib/gcc/arm-none-eabi/4.7.4/../../../../arm-none-eabi/lib/armv7e-m\libg.a(lib_a-mallocr.o)
 .debug_frame   0x00004680       0x2c c:/program files (x86)/eclipse-arm-eseo/gcc-arm-none-eabi-4_7-2013q2-20130614-win32/gnu tools arm embedded/4.7 2013q2/bin/../lib/gcc/arm-none-eabi/4.7.4/../../../../arm-none-eabi/lib/armv7e-m\libg.a(lib_a-memchr.o)
 .debug_frame   0x000046ac       0x30 c:/program files (x86)/eclipse-arm-eseo/gcc-arm-none-eabi-4_7-2013q2-20130614-win32/gnu tools arm embedded/4.7 2013q2/bin/../lib/gcc/arm-none-eabi/4.7.4/../../../../arm-none-eabi/lib/armv7e-m\libg.a(lib_a-memcpy.o)
 .debug_frame   0x000046dc       0x2c c:/program files (x86)/eclipse-arm-eseo/gcc-arm-none-eabi-4_7-2013q2-20130614-win32/gnu tools arm embedded/4.7 2013q2/bin/../lib/gcc/arm-none-eabi/4.7.4/../../../../arm-none-eabi/lib/armv7e-m\libg.a(lib_a-memset.o)
 .debug_frame   0x00004708       0x30 c:/program files (x86)/eclipse-arm-eseo/gcc-arm-none-eabi-4_7-2013q2-20130614-win32/gnu tools arm embedded/4.7 2013q2/bin/../lib/gcc/arm-none-eabi/4.7.4/../../../../arm-none-eabi/lib/armv7e-m\libg.a(lib_a-mlock.o)
 .debug_frame   0x00004738      0x234 c:/program files (x86)/eclipse-arm-eseo/gcc-arm-none-eabi-4_7-2013q2-20130614-win32/gnu tools arm embedded/4.7 2013q2/bin/../lib/gcc/arm-none-eabi/4.7.4/../../../../arm-none-eabi/lib/armv7e-m\libg.a(lib_a-mprec.o)
 .debug_frame   0x0000496c       0x20 c:/program files (x86)/eclipse-arm-eseo/gcc-arm-none-eabi-4_7-2013q2-20130614-win32/gnu tools arm embedded/4.7 2013q2/bin/../lib/gcc/arm-none-eabi/4.7.4/../../../../arm-none-eabi/lib/armv7e-m\libg.a(lib_a-s_fpclassify.o)
 .debug_frame   0x0000498c       0x2c c:/program files (x86)/eclipse-arm-eseo/gcc-arm-none-eabi-4_7-2013q2-20130614-win32/gnu tools arm embedded/4.7 2013q2/bin/../lib/gcc/arm-none-eabi/4.7.4/../../../../arm-none-eabi/lib/armv7e-m\libg.a(lib_a-sbrkr.o)
 .debug_frame   0x000049b8       0x80 c:/program files (x86)/eclipse-arm-eseo/gcc-arm-none-eabi-4_7-2013q2-20130614-win32/gnu tools arm embedded/4.7 2013q2/bin/../lib/gcc/arm-none-eabi/4.7.4/../../../../arm-none-eabi/lib/armv7e-m\libg.a(lib_a-stdio.o)
 .debug_frame   0x00004a38       0x30 c:/program files (x86)/eclipse-arm-eseo/gcc-arm-none-eabi-4_7-2013q2-20130614-win32/gnu tools arm embedded/4.7 2013q2/bin/../lib/gcc/arm-none-eabi/4.7.4/../../../../arm-none-eabi/lib/armv7e-m\libg.a(lib_a-strcmp.o)
 .debug_frame   0x00004a68       0x20 c:/program files (x86)/eclipse-arm-eseo/gcc-arm-none-eabi-4_7-2013q2-20130614-win32/gnu tools arm embedded/4.7 2013q2/bin/../lib/gcc/arm-none-eabi/4.7.4/../../../../arm-none-eabi/lib/armv7e-m\libg.a(lib_a-strlen.o)
 .debug_frame   0x00004a88       0xa8 c:/program files (x86)/eclipse-arm-eseo/gcc-arm-none-eabi-4_7-2013q2-20130614-win32/gnu tools arm embedded/4.7 2013q2/bin/../lib/gcc/arm-none-eabi/4.7.4/../../../../arm-none-eabi/lib/armv7e-m\libg.a(lib_a-vfiprintf.o)
 .debug_frame   0x00004b30       0x2c c:/program files (x86)/eclipse-arm-eseo/gcc-arm-none-eabi-4_7-2013q2-20130614-win32/gnu tools arm embedded/4.7 2013q2/bin/../lib/gcc/arm-none-eabi/4.7.4/../../../../arm-none-eabi/lib/armv7e-m\libg.a(lib_a-writer.o)
 .debug_frame   0x00004b5c       0x28 c:/program files (x86)/eclipse-arm-eseo/gcc-arm-none-eabi-4_7-2013q2-20130614-win32/gnu tools arm embedded/4.7 2013q2/bin/../lib/gcc/arm-none-eabi/4.7.4/../../../../arm-none-eabi/lib/armv7e-m\libg.a(lib_a-callocr.o)
 .debug_frame   0x00004b84       0x2c c:/program files (x86)/eclipse-arm-eseo/gcc-arm-none-eabi-4_7-2013q2-20130614-win32/gnu tools arm embedded/4.7 2013q2/bin/../lib/gcc/arm-none-eabi/4.7.4/../../../../arm-none-eabi/lib/armv7e-m\libg.a(lib_a-closer.o)
 .debug_frame   0x00004bb0       0x3c c:/program files (x86)/eclipse-arm-eseo/gcc-arm-none-eabi-4_7-2013q2-20130614-win32/gnu tools arm embedded/4.7 2013q2/bin/../lib/gcc/arm-none-eabi/4.7.4/../../../../arm-none-eabi/lib/armv7e-m\libg.a(lib_a-fclose.o)
 .debug_frame   0x00004bec       0x54 c:/program files (x86)/eclipse-arm-eseo/gcc-arm-none-eabi-4_7-2013q2-20130614-win32/gnu tools arm embedded/4.7 2013q2/bin/../lib/gcc/arm-none-eabi/4.7.4/../../../../arm-none-eabi/lib/armv7e-m\libg.a(lib_a-fputwc.o)
 .debug_frame   0x00004c40       0x2c c:/program files (x86)/eclipse-arm-eseo/gcc-arm-none-eabi-4_7-2013q2-20130614-win32/gnu tools arm embedded/4.7 2013q2/bin/../lib/gcc/arm-none-eabi/4.7.4/../../../../arm-none-eabi/lib/armv7e-m\libg.a(lib_a-fstatr.o)
 .debug_frame   0x00004c6c       0x38 c:/program files (x86)/eclipse-arm-eseo/gcc-arm-none-eabi-4_7-2013q2-20130614-win32/gnu tools arm embedded/4.7 2013q2/bin/../lib/gcc/arm-none-eabi/4.7.4/../../../../arm-none-eabi/lib/armv7e-m\libg.a(lib_a-fvwrite.o)
 .debug_frame   0x00004ca4       0x2c c:/program files (x86)/eclipse-arm-eseo/gcc-arm-none-eabi-4_7-2013q2-20130614-win32/gnu tools arm embedded/4.7 2013q2/bin/../lib/gcc/arm-none-eabi/4.7.4/../../../../arm-none-eabi/lib/armv7e-m\libg.a(lib_a-isattyr.o)
 .debug_frame   0x00004cd0       0x2c c:/program files (x86)/eclipse-arm-eseo/gcc-arm-none-eabi-4_7-2013q2-20130614-win32/gnu tools arm embedded/4.7 2013q2/bin/../lib/gcc/arm-none-eabi/4.7.4/../../../../arm-none-eabi/lib/armv7e-m\libg.a(lib_a-lseekr.o)
 .debug_frame   0x00004cfc       0x30 c:/program files (x86)/eclipse-arm-eseo/gcc-arm-none-eabi-4_7-2013q2-20130614-win32/gnu tools arm embedded/4.7 2013q2/bin/../lib/gcc/arm-none-eabi/4.7.4/../../../../arm-none-eabi/lib/armv7e-m\libg.a(lib_a-memmove.o)
 .debug_frame   0x00004d2c       0x2c c:/program files (x86)/eclipse-arm-eseo/gcc-arm-none-eabi-4_7-2013q2-20130614-win32/gnu tools arm embedded/4.7 2013q2/bin/../lib/gcc/arm-none-eabi/4.7.4/../../../../arm-none-eabi/lib/armv7e-m\libg.a(lib_a-readr.o)
 .debug_frame   0x00004d58       0x38 c:/program files (x86)/eclipse-arm-eseo/gcc-arm-none-eabi-4_7-2013q2-20130614-win32/gnu tools arm embedded/4.7 2013q2/bin/../lib/gcc/arm-none-eabi/4.7.4/../../../../arm-none-eabi/lib/armv7e-m\libg.a(lib_a-reallocr.o)
 .debug_frame   0x00004d90       0x6c c:/program files (x86)/eclipse-arm-eseo/gcc-arm-none-eabi-4_7-2013q2-20130614-win32/gnu tools arm embedded/4.7 2013q2/bin/../lib/gcc/arm-none-eabi/4.7.4/../../../../arm-none-eabi/lib/armv7e-m\libg.a(lib_a-reent.o)
 .debug_frame   0x00004dfc       0x44 c:/program files (x86)/eclipse-arm-eseo/gcc-arm-none-eabi-4_7-2013q2-20130614-win32/gnu tools arm embedded/4.7 2013q2/bin/../lib/gcc/arm-none-eabi/4.7.4/../../../../arm-none-eabi/lib/armv7e-m\libg.a(lib_a-wbuf.o)
 .debug_frame   0x00004e40       0x58 c:/program files (x86)/eclipse-arm-eseo/gcc-arm-none-eabi-4_7-2013q2-20130614-win32/gnu tools arm embedded/4.7 2013q2/bin/../lib/gcc/arm-none-eabi/4.7.4/../../../../arm-none-eabi/lib/armv7e-m\libg.a(lib_a-wcrtomb.o)
 .debug_frame   0x00004e98       0x44 c:/program files (x86)/eclipse-arm-eseo/gcc-arm-none-eabi-4_7-2013q2-20130614-win32/gnu tools arm embedded/4.7 2013q2/bin/../lib/gcc/arm-none-eabi/4.7.4/../../../../arm-none-eabi/lib/armv7e-m\libg.a(lib_a-wctomb_r.o)
 .debug_frame   0x00004edc       0x50 c:/program files (x86)/eclipse-arm-eseo/gcc-arm-none-eabi-4_7-2013q2-20130614-win32/gnu tools arm embedded/4.7 2013q2/bin/../lib/gcc/arm-none-eabi/4.7.4/armv7e-m\libgcc.a(bpabi.o)
 .debug_frame   0x00004f2c       0x34 c:/program files (x86)/eclipse-arm-eseo/gcc-arm-none-eabi-4_7-2013q2-20130614-win32/gnu tools arm embedded/4.7 2013q2/bin/../lib/gcc/arm-none-eabi/4.7.4/armv7e-m\libgcc.a(_divdi3.o)
 .debug_frame   0x00004f60       0x34 c:/program files (x86)/eclipse-arm-eseo/gcc-arm-none-eabi-4_7-2013q2-20130614-win32/gnu tools arm embedded/4.7 2013q2/bin/../lib/gcc/arm-none-eabi/4.7.4/armv7e-m\libgcc.a(_udivdi3.o)

.debug_str      0x00000000    0x5e2d6
 *(.debug_str)
 .debug_str     0x00000000    0x39b08 ./Tiny/TActManager.o
                              0x39c4f (size before relaxing)
 .debug_str     0x00039b08       0x2a ./Tiny/TBall_inflater.o
                              0x39c53 (size before relaxing)
 .debug_str     0x00039b32       0x2e ./Tiny/TCandle_color_sensor.o
                              0x39c57 (size before relaxing)
 .debug_str     0x00039b60       0x1c ./Tiny/THammer.o
                              0x39c45 (size before relaxing)
 .debug_str     0x00039b7c       0x1b ./Tiny/TPlier.o
                              0x39c44 (size before relaxing)
 .debug_str     0x00039b97     0x1ea7 ./QS/impl/QS_uart_stm32f4.o
                              0x3bb0e (size before relaxing)
 .debug_str     0x0003ba3e      0x3d6 ./QS/QS_CapteurCouleurCW.o
                              0x39fff (size before relaxing)
 .debug_str     0x0003be14     0x641e ./QS/QS_DCMotor2.o
                              0x400ea (size before relaxing)
 .debug_str     0x00042232       0x38 ./QS/QS_Step_motor.o
                              0x39c61 (size before relaxing)
 .debug_str     0x0004226a     0x6179 ./QS/QS_adc.o
                              0x3fe07 (size before relaxing)
 .debug_str     0x000483e3     0x22a9 ./QS/QS_ax12.o
                              0x42b7a (size before relaxing)
 .debug_str     0x0004a68c       0x2a ./QS/QS_buffer_fifo.o
                              0x39c53 (size before relaxing)
 .debug_str     0x0004a6b6      0x1a5 ./QS/QS_buttons.o
                              0x3eeb9 (size before relaxing)
 .debug_str     0x0004a85b     0x1e9a ./QS/QS_can.o
                              0x3ddf6 (size before relaxing)
 .debug_str     0x0004c6f5     0x25c0 ./QS/QS_can_over_uart.o
                              0x3c29d (size before relaxing)
 .debug_str     0x0004ecb5       0x41 ./QS/QS_can_over_xbee.o
                              0x39c6a (size before relaxing)
 .debug_str     0x0004ecf6       0x29 ./QS/QS_configCheck.o
                              0x3a170 (size before relaxing)
 .debug_str     0x0004ed1f     0x12de ./QS/QS_external_it.o
                              0x3b580 (size before relaxing)
 .debug_str     0x0004fffd       0x60 ./QS/QS_global_vars.o
                              0x39ca1 (size before relaxing)
 .debug_str     0x0005005d     0x1d00 ./QS/QS_i2c.o
                              0x3bcce (size before relaxing)
 .debug_str     0x00051d5d      0x3be ./QS/QS_outputlog.o
                              0x3c7ba (size before relaxing)
 .debug_str     0x0005211b     0x1783 ./QS/QS_ports.o
                              0x3ee0b (size before relaxing)
 .debug_str     0x0005389e      0x19d ./QS/QS_pwm.o
                              0x3e660 (size before relaxing)
 .debug_str     0x00053a3b       0xb1 ./QS/QS_qei.o
                              0x3e455 (size before relaxing)
 .debug_str     0x00053aec       0x17 ./QS/QS_rf.o
                              0x39c40 (size before relaxing)
 .debug_str     0x00053b03       0x1d ./QS/QS_servo.o
                              0x39c46 (size before relaxing)
 .debug_str     0x00053b20     0x1c6c ./QS/QS_spi.o
                              0x3bc3a (size before relaxing)
 .debug_str     0x0005578c     0x35cb ./QS/QS_sys.o
                              0x40bea (size before relaxing)
 .debug_str     0x00058d57      0x289 ./QS/QS_timer.o
                              0x3ef42 (size before relaxing)
 .debug_str     0x00058fe0       0x9a ./QS/QS_trap_handler.o
                              0x3a150 (size before relaxing)
 .debug_str     0x0005907a       0xc5 ./QS/QS_uart.o
                              0x3c02a (size before relaxing)
 .debug_str     0x0005913f       0x14 ./QS/QS_watchdog.o
                              0x39c4c (size before relaxing)
 .debug_str     0x00059153       0x71 ./QS/QS_who_am_i.o
                              0x3a477 (size before relaxing)
 .debug_str     0x000591c4      0x353 ./Krusty/KActManager.o
                              0x4029d (size before relaxing)
 .debug_str     0x00059517      0x27b ./Krusty/KBall_launcher.o
                              0x40871 (size before relaxing)
 .debug_str     0x00059792      0x370 ./Krusty/KBall_sorter.o
                              0x40e99 (size before relaxing)
 .debug_str     0x00059b02      0x1f1 ./Krusty/KFruit.o
                              0x40a16 (size before relaxing)
 .debug_str     0x00059cf3      0x934 ./Krusty/KLift.o
                              0x41485 (size before relaxing)
 .debug_str     0x0005a627      0x420 ./Krusty/KPlate.o
                              0x40fb7 (size before relaxing)
 .debug_str     0x0005aa47       0x15 ./Krusty/template.o
                               0x2285 (size before relaxing)
 .debug_str     0x0005aa5c       0x8f ./Can_msg_processing.o
                              0x4007f (size before relaxing)
 .debug_str     0x0005aaeb      0x2bb ./act_queue_utils.o
                              0x40665 (size before relaxing)
 .debug_str     0x0005ada6       0x50 ./clock.o
                              0x3f1a9 (size before relaxing)
 .debug_str     0x0005adf6       0x5b ./main.o
                              0x40772 (size before relaxing)
 .debug_str     0x0005ae51      0xa48 ./maths_home.o
                              0x3bc66 (size before relaxing)
 .debug_str     0x0005b899      0x411 ./queue.o
                              0x3f646 (size before relaxing)
 .debug_str     0x0005bcaa      0x192 ../stm32f4xx\libstm32f4xx.a(misc.o)
                                0x393 (size before relaxing)
 .debug_str     0x0005be3c      0x4de ../stm32f4xx\libstm32f4xx.a(stm32f4xx_adc.o)
                                0x7d5 (size before relaxing)
 .debug_str     0x0005c31a      0x2fb ../stm32f4xx\libstm32f4xx.a(stm32f4xx_can.o)
                                0x70f (size before relaxing)
 .debug_str     0x0005c615      0x22f ../stm32f4xx\libstm32f4xx.a(stm32f4xx_dma.o)
                                0x506 (size before relaxing)
 .debug_str     0x0005c844       0xce ../stm32f4xx\libstm32f4xx.a(stm32f4xx_exti.o)
                                0x328 (size before relaxing)
 .debug_str     0x0005c912      0x3c3 ../stm32f4xx\libstm32f4xx.a(stm32f4xx_flash.o)
                                0x56d (size before relaxing)
 .debug_str     0x0005ccd5      0x182 ../stm32f4xx\libstm32f4xx.a(stm32f4xx_gpio.o)
                                0x5f0 (size before relaxing)
 .debug_str     0x0005ce57      0x593 ../stm32f4xx\libstm32f4xx.a(stm32f4xx_rcc.o)
                                0x858 (size before relaxing)
 .debug_str     0x0005d3ea      0x131 ../stm32f4xx\libstm32f4xx.a(stm32f4xx_syscfg.o)
                                0x2d0 (size before relaxing)
 .debug_str     0x0005d51b      0x9c7 ../stm32f4xx\libstm32f4xx.a(stm32f4xx_tim.o)
                                0xdb8 (size before relaxing)
 .debug_str     0x0005dee2      0x378 ../stm32f4xx\libstm32f4xx.a(stm32f4xx_usart.o)
                                0x689 (size before relaxing)
 .debug_str     0x0005e25a       0x7c ../stm32f4xx\libstm32f4xx.a(system_stm32f4xx.o)
                                0x37f (size before relaxing)

.debug_loc      0x00000000     0xaaf8
 *(.debug_loc)
 .debug_loc     0x00000000      0x5ec ./QS/impl/QS_uart_stm32f4.o
 .debug_loc     0x000005ec      0x374 ./QS/QS_DCMotor2.o
 .debug_loc     0x00000960       0x72 ./QS/QS_adc.o
 .debug_loc     0x000009d2     0x1188 ./QS/QS_ax12.o
 .debug_loc     0x00001b5a       0xe0 ./QS/QS_buttons.o
 .debug_loc     0x00001c3a      0x300 ./QS/QS_can.o
 .debug_loc     0x00001f3a       0xa8 ./QS/QS_can_over_uart.o
 .debug_loc     0x00001fe2      0x1c0 ./QS/QS_external_it.o
 .debug_loc     0x000021a2       0xa8 ./QS/QS_outputlog.o
 .debug_loc     0x0000224a      0x1c0 ./QS/QS_ports.o
 .debug_loc     0x0000240a       0xa8 ./QS/QS_pwm.o
 .debug_loc     0x000024b2       0xf4 ./QS/QS_qei.o
 .debug_loc     0x000025a6      0x3d8 ./QS/QS_sys.o
 .debug_loc     0x0000297e      0x6f0 ./QS/QS_timer.o
 .debug_loc     0x0000306e      0x114 ./QS/QS_trap_handler.o
 .debug_loc     0x00003182      0x1a8 ./QS/QS_uart.o
 .debug_loc     0x0000332a       0x58 ./QS/QS_who_am_i.o
 .debug_loc     0x00003382      0x138 ./Krusty/KActManager.o
 .debug_loc     0x000034ba       0xd4 ./Krusty/KBall_launcher.o
 .debug_loc     0x0000358e       0xf7 ./Krusty/KBall_sorter.o
 .debug_loc     0x00003685      0x166 ./Krusty/KFruit.o
 .debug_loc     0x000037eb      0x247 ./Krusty/KLift.o
 .debug_loc     0x00003a32      0x20e ./Krusty/KPlate.o
 .debug_loc     0x00003c40       0x38 ./Can_msg_processing.o
 .debug_loc     0x00003c78      0x26a ./act_queue_utils.o
 .debug_loc     0x00003ee2       0x84 ./clock.o
 .debug_loc     0x00003f66      0x118 ./main.o
 .debug_loc     0x0000407e       0xa8 ./maths_home.o
 .debug_loc     0x00004126      0x3f0 ./queue.o
 .debug_loc     0x00004516      0x18c ../stm32f4xx\libstm32f4xx.a(misc.o)
 .debug_loc     0x000046a2      0xe11 ../stm32f4xx\libstm32f4xx.a(stm32f4xx_adc.o)
 .debug_loc     0x000054b3      0xa86 ../stm32f4xx\libstm32f4xx.a(stm32f4xx_can.o)
 .debug_loc     0x00005f39      0x65f ../stm32f4xx\libstm32f4xx.a(stm32f4xx_dma.o)
 .debug_loc     0x00006598      0x218 ../stm32f4xx\libstm32f4xx.a(stm32f4xx_exti.o)
 .debug_loc     0x000067b0      0x80b ../stm32f4xx\libstm32f4xx.a(stm32f4xx_flash.o)
 .debug_loc     0x00006fbb      0x414 ../stm32f4xx\libstm32f4xx.a(stm32f4xx_gpio.o)
 .debug_loc     0x000073cf      0xadf ../stm32f4xx\libstm32f4xx.a(stm32f4xx_rcc.o)
 .debug_loc     0x00007eae       0xe6 ../stm32f4xx\libstm32f4xx.a(stm32f4xx_syscfg.o)
 .debug_loc     0x00007f94     0x2041 ../stm32f4xx\libstm32f4xx.a(stm32f4xx_tim.o)
 .debug_loc     0x00009fd5      0x9c1 ../stm32f4xx\libstm32f4xx.a(stm32f4xx_usart.o)
 .debug_loc     0x0000a996      0x162 ../stm32f4xx\libstm32f4xx.a(system_stm32f4xx.o)

.debug_macinfo
 *(.debug_macinfo)

.debug_weaknames
 *(.debug_weaknames)

.debug_funcnames
 *(.debug_funcnames)

.debug_typenames
 *(.debug_typenames)

.debug_varnames
 *(.debug_varnames)
OUTPUT(Actionneur.elf elf32-littlearm)

.debug_macro    0x00000000    0x1358d
 .debug_macro   0x00000000      0x165 ./Tiny/TActManager.o
 .debug_macro   0x00000165      0x7fc ./Tiny/TActManager.o
 .debug_macro   0x00000961       0x69 ./Tiny/TActManager.o
 .debug_macro   0x000009ca       0x3b ./Tiny/TActManager.o
 .debug_macro   0x00000a05       0x3a ./Tiny/TActManager.o
 .debug_macro   0x00000a3f       0x10 ./Tiny/TActManager.o
 .debug_macro   0x00000a4f       0x2e ./Tiny/TActManager.o
 .debug_macro   0x00000a7d       0xa2 ./Tiny/TActManager.o
 .debug_macro   0x00000b1f      0x20e ./Tiny/TActManager.o
 .debug_macro   0x00000d2d       0x18 ./Tiny/TActManager.o
 .debug_macro   0x00000d45       0x42 ./Tiny/TActManager.o
 .debug_macro   0x00000d87      0xd39 ./Tiny/TActManager.o
 .debug_macro   0x00001ac0     0x822c ./Tiny/TActManager.o
 .debug_macro   0x00009cec      0x576 ./Tiny/TActManager.o
 .debug_macro   0x0000a262       0x82 ./Tiny/TActManager.o
 .debug_macro   0x0000a2e4       0x35 ./Tiny/TActManager.o
 .debug_macro   0x0000a319       0x10 ./Tiny/TActManager.o
 .debug_macro   0x0000a329       0x16 ./Tiny/TActManager.o
 .debug_macro   0x0000a33f       0x64 ./Tiny/TActManager.o
 .debug_macro   0x0000a3a3       0xac ./Tiny/TActManager.o
 .debug_macro   0x0000a44f       0x7c ./Tiny/TActManager.o
 .debug_macro   0x0000a4cb      0x165 ./Tiny/TBall_inflater.o
 .debug_macro   0x0000a630      0x165 ./Tiny/TCandle_color_sensor.o
 .debug_macro   0x0000a795      0x165 ./Tiny/THammer.o
 .debug_macro   0x0000a8fa      0x165 ./Tiny/TPlier.o
 .debug_macro   0x0000aa5f      0x18b ./QS/impl/QS_uart_stm32f4.o
 .debug_macro   0x0000abea       0x16 ./QS/impl/QS_uart_stm32f4.o
 .debug_macro   0x0000ac00      0x21d ./QS/impl/QS_uart_stm32f4.o
 .debug_macro   0x0000ae1d      0x178 ./QS/QS_CapteurCouleurCW.o
 .debug_macro   0x0000af95       0x58 ./QS/QS_CapteurCouleurCW.o
 .debug_macro   0x0000afed      0x1c1 ./QS/QS_DCMotor2.o
 .debug_macro   0x0000b1ae       0x34 ./QS/QS_DCMotor2.o
 .debug_macro   0x0000b1e2       0x16 ./QS/QS_DCMotor2.o
 .debug_macro   0x0000b1f8      0x73b ./QS/QS_DCMotor2.o
 .debug_macro   0x0000b933       0x4c ./QS/QS_DCMotor2.o
 .debug_macro   0x0000b97f      0x460 ./QS/QS_DCMotor2.o
 .debug_macro   0x0000bddf       0x46 ./QS/QS_DCMotor2.o
 .debug_macro   0x0000be25      0x16b ./QS/QS_Step_motor.o
 .debug_macro   0x0000bf90      0x18d ./QS/QS_adc.o
 .debug_macro   0x0000c11d      0x455 ./QS/QS_adc.o
 .debug_macro   0x0000c572      0x477 ./QS/QS_adc.o
 .debug_macro   0x0000c9e9      0x453 ./QS/QS_ax12.o
 .debug_macro   0x0000ce3c       0x1f ./QS/QS_ax12.o
 .debug_macro   0x0000ce5b       0x4a ./QS/QS_ax12.o
 .debug_macro   0x0000cea5      0x223 ./QS/QS_ax12.o
 .debug_macro   0x0000d0c8       0x5e ./QS/QS_ax12.o
 .debug_macro   0x0000d126       0xb8 ./QS/QS_ax12.o
 .debug_macro   0x0000d1de       0x40 ./QS/QS_ax12.o
 .debug_macro   0x0000d21e      0x165 ./QS/QS_buffer_fifo.o
 .debug_macro   0x0000d383      0x1a5 ./QS/QS_buttons.o
 .debug_macro   0x0000d528      0x1bf ./QS/QS_can.o
 .debug_macro   0x0000d6e7      0x3cf ./QS/QS_can.o
 .debug_macro   0x0000dab6      0x213 ./QS/QS_can_over_uart.o
 .debug_macro   0x0000dcc9       0x28 ./QS/QS_can_over_uart.o
 .debug_macro   0x0000dcf1       0x10 ./QS/QS_can_over_uart.o
 .debug_macro   0x0000dd01       0x89 ./QS/QS_can_over_uart.o
 .debug_macro   0x0000dd8a       0x10 ./QS/QS_can_over_uart.o
 .debug_macro   0x0000dd9a       0x3a ./QS/QS_can_over_uart.o
 .debug_macro   0x0000ddd4       0x52 ./QS/QS_can_over_uart.o
 .debug_macro   0x0000de26       0x19 ./QS/QS_can_over_uart.o
 .debug_macro   0x0000de3f      0x16d ./QS/QS_can_over_uart.o
 .debug_macro   0x0000dfac       0x10 ./QS/QS_can_over_uart.o
 .debug_macro   0x0000dfbc       0xf5 ./QS/QS_can_over_uart.o
 .debug_macro   0x0000e0b1       0x22 ./QS/QS_can_over_uart.o
 .debug_macro   0x0000e0d3       0x91 ./QS/QS_can_over_uart.o
 .debug_macro   0x0000e164       0x16 ./QS/QS_can_over_uart.o
 .debug_macro   0x0000e17a      0x16d ./QS/QS_can_over_uart.o
 .debug_macro   0x0000e2e7      0x16b ./QS/QS_can_over_xbee.o
 .debug_macro   0x0000e452      0x173 ./QS/QS_configCheck.o
 .debug_macro   0x0000e5c5      0x177 ./QS/QS_external_it.o
 .debug_macro   0x0000e73c       0xe2 ./QS/QS_external_it.o
 .debug_macro   0x0000e81e       0xae ./QS/QS_external_it.o
 .debug_macro   0x0000e8cc      0x165 ./QS/QS_global_vars.o
 .debug_macro   0x0000ea31      0x19a ./QS/QS_i2c.o
 .debug_macro   0x0000ebcb       0x1c ./QS/QS_i2c.o
 .debug_macro   0x0000ebe7      0x2b5 ./QS/QS_i2c.o
 .debug_macro   0x0000ee9c      0x219 ./QS/QS_outputlog.o
 .debug_macro   0x0000f0b5       0x52 ./QS/QS_outputlog.o
 .debug_macro   0x0000f107       0x5e ./QS/QS_outputlog.o
 .debug_macro   0x0000f165       0x52 ./QS/QS_outputlog.o
 .debug_macro   0x0000f1b7      0x189 ./QS/QS_ports.o
 .debug_macro   0x0000f340      0x288 ./QS/QS_ports.o
 .debug_macro   0x0000f5c8      0x19b ./QS/QS_pwm.o
 .debug_macro   0x0000f763      0x17d ./QS/QS_qei.o
 .debug_macro   0x0000f8e0       0x22 ./QS/QS_qei.o
 .debug_macro   0x0000f902      0x165 ./QS/QS_rf.o
 .debug_macro   0x0000fa67      0x165 ./QS/QS_servo.o
 .debug_macro   0x0000fbcc      0x19f ./QS/QS_spi.o
 .debug_macro   0x0000fd6b      0x36c ./QS/QS_spi.o
 .debug_macro   0x000100d7      0x2df ./QS/QS_sys.o
 .debug_macro   0x000103b6      0x2f7 ./QS/QS_sys.o
 .debug_macro   0x000106ad       0x10 ./QS/QS_sys.o
 .debug_macro   0x000106bd      0x239 ./QS/QS_sys.o
 .debug_macro   0x000108f6       0x10 ./QS/QS_sys.o
 .debug_macro   0x00010906       0x16 ./QS/QS_sys.o
 .debug_macro   0x0001091c       0x34 ./QS/QS_sys.o
 .debug_macro   0x00010950      0x120 ./QS/QS_sys.o
 .debug_macro   0x00010a70       0x16 ./QS/QS_sys.o
 .debug_macro   0x00010a86       0x35 ./QS/QS_sys.o
 .debug_macro   0x00010abb      0x495 ./QS/QS_sys.o
 .debug_macro   0x00010f50       0x16 ./QS/QS_sys.o
 .debug_macro   0x00010f66      0x158 ./QS/QS_sys.o
 .debug_macro   0x000110be      0x173 ./QS/QS_timer.o
 .debug_macro   0x00011231      0x168 ./QS/QS_trap_handler.o
 .debug_macro   0x00011399      0x19c ./QS/QS_uart.o
 .debug_macro   0x00011535      0x165 ./QS/QS_watchdog.o
 .debug_macro   0x0001169a      0x177 ./QS/QS_who_am_i.o
 .debug_macro   0x00011811      0x21e ./Krusty/KActManager.o
 .debug_macro   0x00011a2f       0x28 ./Krusty/KActManager.o
 .debug_macro   0x00011a57       0x65 ./Krusty/KActManager.o
 .debug_macro   0x00011abc      0x220 ./Krusty/KBall_launcher.o
 .debug_macro   0x00011cdc       0x3a ./Krusty/KBall_launcher.o
 .debug_macro   0x00011d16       0x52 ./Krusty/KBall_launcher.o
 .debug_macro   0x00011d68      0x22f ./Krusty/KBall_sorter.o
 .debug_macro   0x00011f97       0x40 ./Krusty/KBall_sorter.o
 .debug_macro   0x00011fd7      0x203 ./Krusty/KFruit.o
 .debug_macro   0x000121da       0x34 ./Krusty/KFruit.o
 .debug_macro   0x0001220e      0x247 ./Krusty/KLift.o
 .debug_macro   0x00012455       0xd6 ./Krusty/KLift.o
 .debug_macro   0x0001252b      0x235 ./Krusty/KPlate.o
 .debug_macro   0x00012760       0x82 ./Krusty/KPlate.o
 .debug_macro   0x000127e2       0x11 ./Krusty/template.o
 .debug_macro   0x000127f3      0x1fd ./Can_msg_processing.o
 .debug_macro   0x000129f0      0x1ea ./act_queue_utils.o
 .debug_macro   0x00012bda      0x1bc ./clock.o
 .debug_macro   0x00012d96      0x237 ./main.o
 .debug_macro   0x00012fcd      0x1c6 ./maths_home.o
 .debug_macro   0x00013193      0x1da ./maths_home.o
 .debug_macro   0x0001336d      0x1ce ./queue.o
 .debug_macro   0x0001353b       0x52 ./queue.o

.debug_ranges   0x00000000      0xad8
 .debug_ranges  0x00000000       0x18 ./QS/QS_ax12.o
 .debug_ranges  0x00000018       0x20 ./QS/startup_stm32f40xx.o
 .debug_ranges  0x00000038       0x18 ./Krusty/KBall_sorter.o
 .debug_ranges  0x00000050       0x30 ../stm32f4xx\libstm32f4xx.a(misc.o)
 .debug_ranges  0x00000080      0x138 ../stm32f4xx\libstm32f4xx.a(stm32f4xx_adc.o)
 .debug_ranges  0x000001b8       0xc8 ../stm32f4xx\libstm32f4xx.a(stm32f4xx_can.o)
 .debug_ranges  0x00000280       0xa0 ../stm32f4xx\libstm32f4xx.a(stm32f4xx_dma.o)
 .debug_ranges  0x00000320       0x48 ../stm32f4xx\libstm32f4xx.a(stm32f4xx_exti.o)
 .debug_ranges  0x00000368      0x108 ../stm32f4xx\libstm32f4xx.a(stm32f4xx_flash.o)
 .debug_ranges  0x00000470       0x78 ../stm32f4xx\libstm32f4xx.a(stm32f4xx_gpio.o)
 .debug_ranges  0x000004e8      0x178 ../stm32f4xx\libstm32f4xx.a(stm32f4xx_rcc.o)
 .debug_ranges  0x00000660       0x38 ../stm32f4xx\libstm32f4xx.a(stm32f4xx_syscfg.o)
 .debug_ranges  0x00000698      0x308 ../stm32f4xx\libstm32f4xx.a(stm32f4xx_tim.o)
 .debug_ranges  0x000009a0       0xf0 ../stm32f4xx\libstm32f4xx.a(stm32f4xx_usart.o)
 .debug_ranges  0x00000a90       0x48 ../stm32f4xx\libstm32f4xx.a(system_stm32f4xx.o)
